ASxxxx Linker V03.00/V05.40 + sdld,  page 1.
Hexadecimal  [32-Bits]

Area                                    Addr        Size        Decimal Bytes (Attributes)
--------------------------------        ----        ----        ------- ----- ------------
CABS                                00000000    00000000 =           0. bytes (ABS,CON,CODE)

      Value  Global                              Global Defined In Module
      -----  --------------------------------   ------------------------
C:   00000000  l_BIT_BANK                      
C:   00000000  l_BSEG                          
C:   00000000  l_BSEG_BYTES                    
C:   00000000  l_CABS                          
C:   00000000  l_GSINIT                        
C:   00000000  l_GSINIT1                       
C:   00000000  l_GSINIT5                       
C:   00000000  l_IABS                          
C:   00000000  l_ISEG                          
C:   00000000  l_PSEG                          
C:   00000000  l_REG_BANK_1                    
C:   00000000  l_REG_BANK_2                    
C:   00000000  l_REG_BANK_3                    
C:   00000000  l_RSEG                          
C:   00000000  l_RSEG0                         
C:   00000000  l_RSEG1                         
C:   00000000  l_XABS                          
C:   00000000  l_XINIT                         
C:   00000000  l_XISEG                         
C:   00000000  l__CODE                         
C:   00000000  s_BSEG                          
C:   00000000  s_CABS                          
C:   00000000  s_DSEG                          
C:   00000000  s_HOME                          
C:   00000000  s_IABS                          
C:   00000000  s_ISEG                          
C:   00000000  s_REG_BANK_0                    
C:   00000000  s_RSEG                          
C:   00000000  s_RSEG0                         
C:   00000000  s_RSEG1                         
C:   00000000  s_XABS                          
C:   00000001  s_PSEG                          
C:   00000001  s_XSEG                          
C:   00000003  l_GSFINAL                       
C:   00000003  l_GSINIT0                       
C:   00000006  l_OSEG                          
C:   00000008  l_REG_BANK_0                    
C:   00000008  s_REG_BANK_1                    
C:   0000000A  l_GSINIT2                       
C:   00000010  s_REG_BANK_2                    
C:   00000018  s_BIT_BANK                      
C:   00000018  s_REG_BANK_3                    
C:   00000020  s_BSEG_BYTES                    
C:   00000020  s__CODE                         
C:   00000021  l_HOME                          
C:   00000021  s_GSINIT0                       
C:   00000022  l_GSINIT3                       
C:   00000024  s_GSINIT1                       
C:   00000024  s_GSINIT2                       
C:   0000002A  l_GSINIT4                       
ASxxxx Linker V03.00/V05.40 + sdld,  page 2.
Hexadecimal  [32-Bits]

Area                                    Addr        Size        Decimal Bytes (Attributes)
--------------------------------        ----        ----        ------- ----- ------------
CABS                                00000000    00000000 =           0. bytes (ABS,CON,CODE)

      Value  Global                              Global Defined In Module
      -----  --------------------------------   ------------------------
C:   0000002E  s_GSINIT3                       
C:   00000041  s_OSEG                          
C:   00000047  s_SSEG                          
C:   00000050  s_GSINIT4                       
C:   0000007A  s_GSFINAL                       
C:   0000007A  s_GSINIT                        
C:   0000007A  s_GSINIT5                       
C:   0000007D  s_CSEG                          
C:   00000080  l_DSEG                          
C:   000000B1  l_CONST                         
C:   000000B9  l_SSEG                          
C:   00000100  l_IRAM                          
C:   000003B6  l_XSEG                          
C:   000003B7  s_XISEG                         
C:   000018AE  l_CSEG                          
C:   0000192B  s_CONST                         
C:   000019DC  s_XINIT                         

ASxxxx Linker V03.00/V05.40 + sdld,  page 3.
Hexadecimal  [32-Bits]

Area                                    Addr        Size        Decimal Bytes (Attributes)
--------------------------------        ----        ----        ------- ----- ------------
.  .ABS.                            00000000    00000000 =           0. bytes (ABS,CON)

      Value  Global                              Global Defined In Module
      -----  --------------------------------   ------------------------
     00000000  .__.ABS.                           _startup
     00000080  _ADC_CHAN0                         WiFi_Module
     00000080  _ADC_CTRL                          WiFi_Module
     00000080  _P0                                main
     00000080  _P0_0                              main
     00000081  _ADC_CHAN1                         WiFi_Module
     00000081  _P0_1                              main
     00000081  _SP                                WiFi_Module
     00000082  _DPL                               WiFi_Module
     00000082  _P0_2                              main
     00000083  _CMP_CHAN                          WiFi_Module
     00000083  _DPH                               WiFi_Module
     00000083  _P0_3                              main
     00000084  _ADC_START                         WiFi_Module
     00000084  _P0_4                              main
     00000084  _ROM_ADDR_L                        WiFi_Module
     00000085  _ADC_IF                            WiFi_Module
     00000085  _P0_5                              main
     00000085  _ROM_ADDR_H                        WiFi_Module
     00000086  _CMP_IF                            WiFi_Module
     00000086  _P0_6                              main
     00000086  _ROM_CTRL                          WiFi_Module
     00000087  _CMPO                              WiFi_Module
     00000087  _P0_7                              main
     00000087  _PCON                              WiFi_Module
     00000088  _IT0                               WiFi_Module
     00000088  _TCON                              WiFi_Module
     00000089  _IE0                               WiFi_Module
     00000089  _TMOD                              WiFi_Module
     0000008A  _IT1                               WiFi_Module
     0000008A  _TL0                               WiFi_Module
     0000008B  _IE1                               WiFi_Module
     0000008B  _TL1                               WiFi_Module
     0000008C  _TH0                               WiFi_Module
     0000008C  _TR0                               WiFi_Module
     0000008D  _TF0                               WiFi_Module
     0000008D  _TH1                               WiFi_Module
     0000008E  _ROM_DATA_L                        WiFi_Module
     0000008E  _TR1                               WiFi_Module
     0000008F  _ROM_DATA_H                        WiFi_Module
     0000008F  _TF1                               WiFi_Module
     00000090  _CAP1                              WiFi_Module
     00000090  _P1                                WiFi_Module
     00000090  _P1_0                              main
     00000090  _T2                                WiFi_Module
     00000090  _TIN0                              WiFi_Module
     00000091  _AIN0                              WiFi_Module
     00000091  _CAP2                              WiFi_Module
     00000091  _P1_1                              main
     00000091  _T2EX                              WiFi_Module
ASxxxx Linker V03.00/V05.40 + sdld,  page 4.
Hexadecimal  [32-Bits]

Area                                    Addr        Size        Decimal Bytes (Attributes)
--------------------------------        ----        ----        ------- ----- ------------
.  .ABS.                            00000000    00000000 =           0. bytes (ABS,CON)

      Value  Global                              Global Defined In Module
      -----  --------------------------------   ------------------------
     00000091  _TIN1                              WiFi_Module
     00000091  _USB_C_CTRL                        WiFi_Module
     00000091  _VBUS2                             WiFi_Module
     00000092  _P1_2                              main
     00000092  _P1_MOD_OC                         WiFi_Module
     00000092  _RXD_                              WiFi_Module
     00000093  _P1_3                              main
     00000093  _P1_DIR_PU                         WiFi_Module
     00000093  _TXD_                              WiFi_Module
     00000094  _AIN1                              WiFi_Module
     00000094  _CAP1_                             WiFi_Module
     00000094  _P1_4                              main
     00000094  _SCS                               WiFi_Module
     00000094  _T2_                               WiFi_Module
     00000094  _TIN2                              WiFi_Module
     00000094  _UCC1                              WiFi_Module
     00000095  _AIN2                              WiFi_Module
     00000095  _MOSI                              WiFi_Module
     00000095  _P1_5                              main
     00000095  _PWM1                              WiFi_Module
     00000095  _TIN3                              WiFi_Module
     00000095  _UCC2                              WiFi_Module
     00000096  _MISO                              WiFi_Module
     00000096  _P1_6                              main
     00000096  _P3_MOD_OC                         WiFi_Module
     00000096  _RXD1                              WiFi_Module
     00000096  _TIN4                              WiFi_Module
     00000097  _P1_7                              main
     00000097  _P3_DIR_PU                         WiFi_Module
     00000097  _SCK                               WiFi_Module
     00000097  _TIN5                              WiFi_Module
     00000097  _TXD1                              WiFi_Module
     00000098  _RI                                WiFi_Module
     00000098  _SCON                              WiFi_Module
     00000099  _SBUF                              WiFi_Module
     00000099  _TI                                WiFi_Module
     0000009A  _ADC_CFG                           WiFi_Module
     0000009A  _RB8                               WiFi_Module
     0000009B  _PWM_DATA2                         WiFi_Module
     0000009B  _TB8                               WiFi_Module
     0000009C  _PWM_DATA1                         WiFi_Module
     0000009C  _REN                               WiFi_Module
     0000009D  _PWM_CTRL                          WiFi_Module
     0000009D  _SM2                               WiFi_Module
     0000009E  _PWM_CK_SE                         WiFi_Module
     0000009E  _SM1                               WiFi_Module
     0000009F  _ADC_DATA                          WiFi_Module
     0000009F  _SM0                               WiFi_Module
     000000A0  _P2                                WiFi_Module
     000000A0  _P2_0                              main
     000000A0  __XPAGE                            
ASxxxx Linker V03.00/V05.40 + sdld,  page 5.
Hexadecimal  [32-Bits]

Area                                    Addr        Size        Decimal Bytes (Attributes)
--------------------------------        ----        ----        ------- ----- ------------
.  .ABS.                            00000000    00000000 =           0. bytes (ABS,CON)

      Value  Global                              Global Defined In Module
      -----  --------------------------------   ------------------------
     000000A1  _P2_1                              main
     000000A1  _SAFE_MOD                          WiFi_Module
     000000A2  _P2_2                              main
     000000A2  _XBUS_AUX                          WiFi_Module
     000000A3  _P2_3                              main
     000000A4  _P2_4                              main
     000000A5  _P2_5                              main
     000000A6  _P2_6                              main
     000000A7  _P2_7                              main
     000000A8  _EX0                               WiFi_Module
     000000A8  _IE                                WiFi_Module
     000000A9  _ET0                               WiFi_Module
     000000A9  _WAKE_CTRL                         WiFi_Module
     000000AA  _EX1                               WiFi_Module
     000000AB  _ET1                               WiFi_Module
     000000AC  _ES                                WiFi_Module
     000000AD  _ET2                               WiFi_Module
     000000AE  _E_DIS                             WiFi_Module
     000000AF  _EA                                WiFi_Module
     000000B0  _P3                                WiFi_Module
     000000B0  _P3_0                              main
     000000B0  _PWM1_                             WiFi_Module
     000000B0  _RXD                               WiFi_Module
     000000B1  _GLOBAL_CFG                        WiFi_Module
     000000B1  _P3_1                              main
     000000B1  _PWM2_                             WiFi_Module
     000000B1  _TXD                               WiFi_Module
     000000B2  _AIN3                              WiFi_Module
     000000B2  _INT0                              WiFi_Module
     000000B2  _P3_2                              main
     000000B2  _TXD1_                             WiFi_Module
     000000B2  _VBUS1                             WiFi_Module
     000000B3  _INT1                              WiFi_Module
     000000B3  _P3_3                              main
     000000B4  _P3_4                              main
     000000B4  _PWM2                              WiFi_Module
     000000B4  _RXD1_                             WiFi_Module
     000000B4  _T0                                WiFi_Module
     000000B5  _P3_5                              main
     000000B5  _T1                                WiFi_Module
     000000B6  _P3_6                              main
     000000B6  _UDP                               WiFi_Module
     000000B6  _WR                                main
     000000B7  _P3_7                              main
     000000B7  _RD                                main
     000000B7  _UDM                               WiFi_Module
     000000B8  _IP                                WiFi_Module
     000000B8  _PX0                               WiFi_Module
     000000B9  _CLOCK_CFG                         WiFi_Module
     000000B9  _PT0                               WiFi_Module
     000000BA  _PX1                               WiFi_Module
ASxxxx Linker V03.00/V05.40 + sdld,  page 6.
Hexadecimal  [32-Bits]

Area                                    Addr        Size        Decimal Bytes (Attributes)
--------------------------------        ----        ----        ------- ----- ------------
.  .ABS.                            00000000    00000000 =           0. bytes (ABS,CON)

      Value  Global                              Global Defined In Module
      -----  --------------------------------   ------------------------
     000000BB  _PT1                               WiFi_Module
     000000BC  _PS                                WiFi_Module
     000000BD  _PT2                               WiFi_Module
     000000BE  _PL_FLAG                           WiFi_Module
     000000BF  _PH_FLAG                           WiFi_Module
     000000C0  _SCON1                             WiFi_Module
     000000C0  _U1RI                              WiFi_Module
     000000C1  _SBUF1                             WiFi_Module
     000000C1  _U1TI                              WiFi_Module
     000000C2  _SBAUD1                            WiFi_Module
     000000C2  _U1RB8                             WiFi_Module
     000000C3  _TKEY_CTRL                         WiFi_Module
     000000C3  _U1TB8                             WiFi_Module
     000000C4  _TKEY_DATL                         WiFi_Module
     000000C4  _U1REN                             WiFi_Module
     000000C5  _TKEY_DATH                         WiFi_Module
     000000C5  _U1SMOD                            WiFi_Module
     000000C6  _PIN_FUNC                          WiFi_Module
     000000C7  _GPIO_IE                           WiFi_Module
     000000C7  _U1SM0                             WiFi_Module
     000000C8  _CP_RL2                            WiFi_Module
     000000C8  _T2CON                             WiFi_Module
     000000C9  _C_T2                              WiFi_Module
     000000C9  _T2MOD                             WiFi_Module
     000000CA  _RCAP2L                            WiFi_Module
     000000CA  _TR2                               WiFi_Module
     000000CB  _EXEN2                             WiFi_Module
     000000CB  _RCAP2H                            WiFi_Module
     000000CC  _TCLK                              WiFi_Module
     000000CC  _TL2                               WiFi_Module
     000000CD  _RCLK                              WiFi_Module
     000000CD  _TH2                               WiFi_Module
     000000CE  _EXF2                              WiFi_Module
     000000CE  _T2CAP1L                           WiFi_Module
     000000CF  _CAP1F                             WiFi_Module
     000000CF  _T2CAP1H                           WiFi_Module
     000000CF  _TF2                               WiFi_Module
     000000D0  _P                                 WiFi_Module
     000000D0  _PSW                               WiFi_Module
     000000D1  _F1                                WiFi_Module
     000000D1  _UDEV_CTRL                         WiFi_Module
     000000D2  _OV                                WiFi_Module
     000000D2  _UEP1_CTRL                         WiFi_Module
     000000D3  _RS0                               WiFi_Module
     000000D3  _UEP1_T_LEN                        WiFi_Module
     000000D4  _RS1                               WiFi_Module
     000000D4  _UEP2_CTRL                         WiFi_Module
     000000D5  _F0                                WiFi_Module
     000000D5  _UEP2_T_LEN                        WiFi_Module
     000000D6  _AC                                WiFi_Module
     000000D6  _UEP3_CTRL                         WiFi_Module
ASxxxx Linker V03.00/V05.40 + sdld,  page 7.
Hexadecimal  [32-Bits]

Area                                    Addr        Size        Decimal Bytes (Attributes)
--------------------------------        ----        ----        ------- ----- ------------
.  .ABS.                            00000000    00000000 =           0. bytes (ABS,CON)

      Value  Global                              Global Defined In Module
      -----  --------------------------------   ------------------------
     000000D7  _CY                                WiFi_Module
     000000D7  _UEP3_T_LEN                        WiFi_Module
     000000D8  _UIF_BUS_RST                       WiFi_Module
     000000D8  _USB_INT_FG                        WiFi_Module
     000000D9  _UIF_TRANSFER                      WiFi_Module
     000000D9  _USB_INT_ST                        WiFi_Module
     000000DA  _UIF_SUSPEND                       WiFi_Module
     000000DA  _USB_MIS_ST                        WiFi_Module
     000000DB  _USB_RX_LEN                        WiFi_Module
     000000DC  _UEP0_CTRL                         WiFi_Module
     000000DC  _UIF_FIFO_OV                       WiFi_Module
     000000DD  _UEP0_T_LEN                        WiFi_Module
     000000DD  _U_SIE_FREE                        WiFi_Module
     000000DE  _UEP4_CTRL                         WiFi_Module
     000000DE  _U_TOG_OK                          WiFi_Module
     000000DF  _UEP4_T_LEN                        WiFi_Module
     000000DF  _U_IS_NAK                          WiFi_Module
     000000E0  _ACC                               WiFi_Module
     000000E1  _USB_INT_EN                        WiFi_Module
     000000E2  _USB_CTRL                          WiFi_Module
     000000E3  _USB_DEV_AD                        WiFi_Module
     000000E4  _UEP2_DMA_L                        WiFi_Module
     000000E5  _UEP2_DMA_H                        WiFi_Module
     000000E6  _UEP3_DMA_L                        WiFi_Module
     000000E7  _UEP3_DMA_H                        WiFi_Module
     000000E8  _IE_EX                             WiFi_Module
     000000E8  _IE_SPI0                           WiFi_Module
     000000E9  _IE_TKEY                           WiFi_Module
     000000E9  _IP_EX                             WiFi_Module
     000000EA  _IE_USB                            WiFi_Module
     000000EA  _UEP4_1_MOD                        WiFi_Module
     000000EB  _IE_ADC                            WiFi_Module
     000000EB  _UEP2_3_MOD                        WiFi_Module
     000000EC  _IE_UART1                          WiFi_Module
     000000EC  _UEP0_DMA_L                        WiFi_Module
     000000ED  _IE_PWMX                           WiFi_Module
     000000ED  _UEP0_DMA_H                        WiFi_Module
     000000EE  _IE_GPIO                           WiFi_Module
     000000EE  _UEP1_DMA_L                        WiFi_Module
     000000EF  _IE_WDOG                           WiFi_Module
     000000EF  _UEP1_DMA_H                        WiFi_Module
     000000F0  _B                                 WiFi_Module
     000000F5  _B_5                               _gptrget
     000000F6  _B_6                               _gptrget
     000000F7  _B_7                               _gptrget
     000000F8  _S0_R_FIFO                         WiFi_Module
     000000F8  _SPI0_STAT                         WiFi_Module
     000000F9  _SPI0_DATA                         WiFi_Module
     000000FA  _S0_T_FIFO                         WiFi_Module
     000000FA  _SPI0_CTRL                         WiFi_Module
     000000FB  _S0_FREE                           WiFi_Module
ASxxxx Linker V03.00/V05.40 + sdld,  page 8.
Hexadecimal  [32-Bits]

Area                                    Addr        Size        Decimal Bytes (Attributes)
--------------------------------        ----        ----        ------- ----- ------------
.  .ABS.                            00000000    00000000 =           0. bytes (ABS,CON)

      Value  Global                              Global Defined In Module
      -----  --------------------------------   ------------------------
     000000FB  _SPI0_CK_SE                        WiFi_Module
     000000FC  _S0_IF_BYTE                        WiFi_Module
     000000FC  _SPI0_SETUP                        WiFi_Module
     000000FD  _S0_IF_FIRST                       WiFi_Module
     000000FE  _RESET_KEEP                        WiFi_Module
     000000FE  _S0_IF_OV                          WiFi_Module
     000000FF  _S0_FST_ACT                        WiFi_Module
     000000FF  _WDOG_COUNT                        WiFi_Module
     00008584  _ROM_ADDR                          WiFi_Module
     00008F8E  _ROM_DATA                          WiFi_Module
     0000C5C4  _TKEY_DAT                          WiFi_Module
     0000CBCA  _RCAP2                             WiFi_Module
     0000CDCC  _T2COUNT                           WiFi_Module
     0000CFCE  _T2CAP1                            WiFi_Module
     0000E5E4  _UEP2_DMA                          WiFi_Module
     0000E7E6  _UEP3_DMA                          WiFi_Module
     0000EDEC  _UEP0_DMA                          WiFi_Module
     0000EFEE  _UEP1_DMA                          WiFi_Module

ASxxxx Linker V03.00/V05.40 + sdld,  page 9.
Hexadecimal  [32-Bits]

Area                                    Addr        Size        Decimal Bytes (Attributes)
--------------------------------        ----        ----        ------- ----- ------------
REG_BANK_0                          00000000    00000008 =           8. bytes (REL,OVR)

      Value  Global                              Global Defined In Module
      -----  --------------------------------   ------------------------
ASxxxx Linker V03.00/V05.40 + sdld,  page 10.
Hexadecimal  [32-Bits]

Area                                    Addr        Size        Decimal Bytes (Attributes)
--------------------------------        ----        ----        ------- ----- ------------
DSEG                                00000000    00000080 =         128. bytes (REL,CON)

      Value  Global                              Global Defined In Module
      -----  --------------------------------   ------------------------
     00000008  _configure_port_PARM_2             utils
     00000009  _uart_begin_PARM_2                 utils
     0000000D  _uart0_receive_byte_PARM_2         utils
     0000000E  _uart0_read_bytes_PARM_2           utils
     00000010  _uart0_read_bytes_PARM_3           utils
     00000015  _uart0_read_string_until_PARM_2    utils
     00000017  _uart0_read_string_until_PARM_3    utils
     00000018  _uart0_read_string_until_PARM_4    utils
     0000001A  _search_str_PARM_2                 utils
     00000028  _convert_PARM_2                    utils
     00000031  _getURL_PARM_2                     utils
     00000034  _getURL_PARM_3                     utils
     00000037  _getURL_PARM_4                     utils
     0000003A  _echo_find_PARM_2                  WiFi_Module
     0000003C  _wifi_send_command_PARM_2          WiFi_Module
     0000003F  _wifi_send_command_PARM_3          WiFi_Module

ASxxxx Linker V03.00/V05.40 + sdld,  page 11.
Hexadecimal  [32-Bits]

Area                                    Addr        Size        Decimal Bytes (Attributes)
--------------------------------        ----        ----        ------- ----- ------------
OSEG                                00000041    00000006 =           6. bytes (REL,OVR)

      Value  Global                              Global Defined In Module
      -----  --------------------------------   ------------------------
     00000041  __divsint_PARM_2                   _divuint
     00000041  __divslong_PARM_2                  _divulong
     00000041  __divuint_PARM_2                   _divuint
     00000041  __divulong_PARM_2                  _divulong
     00000041  __gptrput_PARM_2                   _gptrput
     00000041  __modsint_PARM_2                   _moduint
     00000041  __moduint_PARM_2                   _moduint
     00000041  __mulint_PARM_2                    _mulint
     00000041  _memset_PARM_2                     _memset
     00000041  _select_timer_clk_PARM_2           utils
     00000041  _select_tmr_clk_src_PARM_2         utils
     00000041  _set_output_mode_PARM_2            utils
     00000041  _set_port_dir_PARM_2               utils
     00000041  _set_port_value_PARM_2             utils
     00000041  _set_timer_mode_PARM_2             utils
     00000041  _strcat_PARM_2                     _strcat
     00000041  _strcpy_PARM_2                     _strcpy
     00000041  _timer_interrupt_PARM_2            utils
     00000041  _update_timer_reg_PARM_2           utils
     00000042  _memset_PARM_3                     _memset

ASxxxx Linker V03.00/V05.40 + sdld,  page 12.
Hexadecimal  [32-Bits]

Area                                    Addr        Size        Decimal Bytes (Attributes)
--------------------------------        ----        ----        ------- ----- ------------
SSEG                                00000047    000000B9 =         185. bytes (REL,OVR)

      Value  Global                              Global Defined In Module
      -----  --------------------------------   ------------------------
     00000047  __start__stack                     main

ASxxxx Linker V03.00/V05.40 + sdld,  page 13.
Hexadecimal  [32-Bits]

Area                                    Addr        Size        Decimal Bytes (Attributes)
--------------------------------        ----        ----        ------- ----- ------------
XSEG                                00000001    000003B6 =         950. bytes (REL,CON,XDATA)

      Value  Global                              Global Defined In Module
      -----  --------------------------------   ------------------------
D:   00000268  _instruction                       WiFi_Module
D:   0000029A  _ssid                              WiFi_Module
D:   000002A9  _pwd                               WiFi_Module
ASxxxx Linker V03.00/V05.40 + sdld,  page 14.
Hexadecimal  [32-Bits]

Area                                    Addr        Size        Decimal Bytes (Attributes)
--------------------------------        ----        ----        ------- ----- ------------
HOME                                00000000    00000021 =          33. bytes (REL,CON,CODE)

      Value  Global                              Global Defined In Module
      -----  --------------------------------   ------------------------
C:   0000001E  __sdcc_program_startup             main

ASxxxx Linker V03.00/V05.40 + sdld,  page 15.
Hexadecimal  [32-Bits]

Area                                    Addr        Size        Decimal Bytes (Attributes)
--------------------------------        ----        ----        ------- ----- ------------
GSINIT0                             00000021    00000003 =           3. bytes (REL,CON,CODE)

      Value  Global                              Global Defined In Module
      -----  --------------------------------   ------------------------
C:   00000021  __sdcc_gsinit_startup              

ASxxxx Linker V03.00/V05.40 + sdld,  page 16.
Hexadecimal  [32-Bits]

Area                                    Addr        Size        Decimal Bytes (Attributes)
--------------------------------        ----        ----        ------- ----- ------------
GSINIT2                             00000024    0000000A =          10. bytes (REL,CON,CODE)

      Value  Global                              Global Defined In Module
      -----  --------------------------------   ------------------------
ASxxxx Linker V03.00/V05.40 + sdld,  page 17.
Hexadecimal  [32-Bits]

Area                                    Addr        Size        Decimal Bytes (Attributes)
--------------------------------        ----        ----        ------- ----- ------------
GSINIT3                             0000002E    00000022 =          34. bytes (REL,CON,CODE)

      Value  Global                              Global Defined In Module
      -----  --------------------------------   ------------------------
C:   0000002E  __mcs51_genXINIT                   

ASxxxx Linker V03.00/V05.40 + sdld,  page 18.
Hexadecimal  [32-Bits]

Area                                    Addr        Size        Decimal Bytes (Attributes)
--------------------------------        ----        ----        ------- ----- ------------
GSINIT4                             00000050    0000002A =          42. bytes (REL,CON,CODE)

      Value  Global                              Global Defined In Module
      -----  --------------------------------   ------------------------
C:   00000050  __mcs51_genRAMCLEAR                
C:   00000056  __mcs51_genXRAMCLEAR               

ASxxxx Linker V03.00/V05.40 + sdld,  page 19.
Hexadecimal  [32-Bits]

Area                                    Addr        Size        Decimal Bytes (Attributes)
--------------------------------        ----        ----        ------- ----- ------------
GSFINAL                             0000007A    00000003 =           3. bytes (REL,CON,CODE)

      Value  Global                              Global Defined In Module
      -----  --------------------------------   ------------------------
ASxxxx Linker V03.00/V05.40 + sdld,  page 20.
Hexadecimal  [32-Bits]

Area                                    Addr        Size        Decimal Bytes (Attributes)
--------------------------------        ----        ----        ------- ----- ------------
CSEG                                0000007D    000018AE =        6318. bytes (REL,CON,CODE)

      Value  Global                              Global Defined In Module
      -----  --------------------------------   ------------------------
C:   0000007D  _timer0_isr                        main
C:   0000007E  _main                              main
C:   00000415  _delay                             utils
C:   00000439  _set_output_mode                   utils
C:   0000044D  _read_output_mode                  utils
C:   00000467  _set_port_dir                      utils
C:   0000047B  _read_port_dir                     utils
C:   00000495  _set_port_value                    utils
C:   000004AC  _read_port_value                   utils
C:   000004C6  _configure_port                    utils
C:   0000052B  _start_adc                         utils
C:   0000052F  _is_adc_done                       utils
C:   0000053B  _ADC_Enable                        utils
C:   00000547  _set_ADC_speed                     utils
C:   00000553  _set_ADC_channel                   utils
C:   0000055F  _analog_read                       utils
C:   0000057E  _bit_bang_uart_begin               utils
C:   00000596  _bit_bang_uart_tx                  utils
C:   0000061A  _print                             utils
C:   00000669  _println                           utils
C:   00000678  _get_system_freq                   utils
C:   0000067F  _set_timer_mode                    utils
C:   000006E4  _select_timer_clk                  utils
C:   00000739  _select_tmr_clk_src                utils
C:   00000770  _update_timer_reg                  utils
C:   00000796  _timer_interrupt                   utils
C:   000007CE  _start_timer                       utils
C:   000007E5  _stop_timer                        utils
C:   000007FC  _uart_begin                        utils
C:   000008C7  _uart0_write                       utils
C:   000008D5  _uart0_print                       utils
C:   00000924  _uart0_println                     utils
C:   00000D40  _uart0_receive_byte                utils
C:   00000DC6  _uart0_read_bytes                  utils
C:   00000E28  _uart0_read_string_until           utils
C:   00000E9B  _search_str                        utils
C:   00000F79  _convert_to_percentage             utils
C:   00000F8F  _convert                           utils
C:   0000104F  _getURL                            utils
C:   000011DB  _DeviceSerialNumber                dev_info
C:   000011F3  _DeviceType                        dev_info
C:   0000120B  _DeviceManufactureDate             dev_info
C:   00001223  _echo_find                         WiFi_Module
C:   00001656  _wifi_send_command                 WiFi_Module
C:   0000166B  _strcpy                            _strcpy
C:   000016AB  __divulong                         _divulong
C:   00001710  _memset                            _memset
C:   0000172F  _strcat                            _strcat
C:   00001785  __gptrput                          _gptrput
C:   000017A0  __mulint                           _mulint
ASxxxx Linker V03.00/V05.40 + sdld,  page 21.
Hexadecimal  [32-Bits]

Area                                    Addr        Size        Decimal Bytes (Attributes)
--------------------------------        ----        ----        ------- ----- ------------
CSEG                                0000007D    000018AE =        6318. bytes (REL,CON,CODE)

      Value  Global                              Global Defined In Module
      -----  --------------------------------   ------------------------
C:   000017A0  __mulint_dummy                     _mulint
C:   000017BD  __moduint                          _moduint
C:   0000180A  __divuint                          _divuint
C:   00001833  __divslong                         _divslong
C:   00001885  _strlen                            _strlen
C:   0000189D  __gptrget                          _gptrget
C:   000018B9  __modsint                          _modsint
C:   000018EF  __divsint                          _divsint
C:   00001927  ___sdcc_external_startup           _startup

ASxxxx Linker V03.00/V05.40 + sdld,  page 22.
Hexadecimal  [32-Bits]

Area                                    Addr        Size        Decimal Bytes (Attributes)
--------------------------------        ----        ----        ------- ----- ------------
CONST                               0000192B    000000B1 =         177. bytes (REL,CON,CODE)

      Value  Global                              Global Defined In Module
      -----  --------------------------------   ------------------------
ASxxxx Linker V03.00/V05.40 + sdld,  page 23.

Files Linked                              [ module(s) ]

../build/build_files/main.rel             [  ]
../build/build_files/utils.rel            [  ]
../build/build_files/dev_info.rel         [  ]
../build/build_files/WiFi_Module.rel      [  ]


Libraries Linked                          [ object file ]

/usr/local/bin/../share/sdcc/lib/small/libsdcc.lib
                                          [ _strcpy.rel ]
/usr/local/bin/../share/sdcc/lib/small/liblong.lib
                                          [ _divulong.rel ]
/usr/local/bin/../share/sdcc/lib/small/mcs51.lib
                                          [ crtclear.rel ]
/usr/local/bin/../share/sdcc/lib/small/libsdcc.lib
                                          [ _memset.rel ]
/usr/local/bin/../share/sdcc/lib/small/mcs51.lib
                                          [ crtxinit.rel ]
/usr/local/bin/../share/sdcc/lib/small/libsdcc.lib
                                          [ _strcat.rel ]
/usr/local/bin/../share/sdcc/lib/small/libsdcc.lib
                                          [ _gptrput.rel ]
/usr/local/bin/../share/sdcc/lib/small/libint.lib
                                          [ _mulint.rel ]
/usr/local/bin/../share/sdcc/lib/small/libint.lib
                                          [ _moduint.rel ]
/usr/local/bin/../share/sdcc/lib/small/libint.lib
                                          [ _divuint.rel ]
/usr/local/bin/../share/sdcc/lib/small/mcs51.lib
                                          [ crtxclear.rel ]
/usr/local/bin/../share/sdcc/lib/small/liblong.lib
                                          [ _divslong.rel ]
/usr/local/bin/../share/sdcc/lib/small/mcs51.lib
                                          [ crtpagesfr.rel ]
/usr/local/bin/../share/sdcc/lib/small/libsdcc.lib
                                          [ _strlen.rel ]
/usr/local/bin/../share/sdcc/lib/small/mcs51.lib
                                          [ crtstart.rel ]
/usr/local/bin/../share/sdcc/lib/small/libsdcc.lib
                                          [ _gptrget.rel ]
/usr/local/bin/../share/sdcc/lib/small/libint.lib
                                          [ _modsint.rel ]
/usr/local/bin/../share/sdcc/lib/small/libint.lib
                                          [ _divsint.rel ]
/usr/local/bin/../share/sdcc/lib/small/libsdcc.lib
                                          [ _startup.rel ]

ASxxxx Linker V03.00/V05.40 + sdld,  page 24.

User Base Address Definitions

HOME = 0x0000
XSEG = 0x0001
PSEG = 0x0001
ISEG = 0x0000
BSEG = 0x0000

