ASxxxx Linker V03.00/V05.40 + sdld,  page 1.
Hexadecimal  [32-Bits]

Area                                    Addr        Size        Decimal Bytes (Attributes)
--------------------------------        ----        ----        ------- ----- ------------
CABS                                00000000    00000000 =           0. bytes (ABS,CON,CODE)

      Value  Global                              Global Defined In Module
      -----  --------------------------------   ------------------------
C:   00000000  l_BIT_BANK                      
C:   00000000  l_BSEG                          
C:   00000000  l_BSEG_BYTES                    
C:   00000000  l_CABS                          
C:   00000000  l_CONST                         
C:   00000000  l_GSINIT                        
C:   00000000  l_GSINIT1                       
C:   00000000  l_GSINIT5                       
C:   00000000  l_IABS                          
C:   00000000  l_ISEG                          
C:   00000000  l_OSEG                          
C:   00000000  l_PSEG                          
C:   00000000  l_REG_BANK_1                    
C:   00000000  l_REG_BANK_2                    
C:   00000000  l_REG_BANK_3                    
C:   00000000  l_RSEG                          
C:   00000000  l_RSEG0                         
C:   00000000  l_RSEG1                         
C:   00000000  l_XABS                          
C:   00000000  l_XINIT                         
C:   00000000  l_XISEG                         
C:   00000000  l_XSEG                          
C:   00000000  l__CODE                         
C:   00000000  s_BSEG                          
C:   00000000  s_CABS                          
C:   00000000  s_DSEG                          
C:   00000000  s_HOME                          
C:   00000000  s_IABS                          
C:   00000000  s_ISEG                          
C:   00000000  s_REG_BANK_0                    
C:   00000000  s_RSEG                          
C:   00000000  s_RSEG0                         
C:   00000000  s_RSEG1                         
C:   00000000  s_XABS                          
C:   00000001  s_PSEG                          
C:   00000001  s_XISEG                         
C:   00000001  s_XSEG                          
C:   00000003  l_GSFINAL                       
C:   00000003  l_GSINIT0                       
C:   00000006  l_HOME                          
C:   00000006  s_GSINIT0                       
C:   00000008  l_REG_BANK_0                    
C:   00000008  s_REG_BANK_1                    
C:   00000008  s_SSEG                          
C:   00000009  s_GSINIT1                       
C:   00000009  s_GSINIT2                       
C:   0000000A  l_GSINIT2                       
C:   00000010  s_REG_BANK_2                    
C:   00000013  s_GSINIT3                       
C:   00000018  s_BIT_BANK                      
ASxxxx Linker V03.00/V05.40 + sdld,  page 2.
Hexadecimal  [32-Bits]

Area                                    Addr        Size        Decimal Bytes (Attributes)
--------------------------------        ----        ----        ------- ----- ------------
CABS                                00000000    00000000 =           0. bytes (ABS,CON,CODE)

      Value  Global                              Global Defined In Module
      -----  --------------------------------   ------------------------
C:   00000018  s_OSEG                          
C:   00000018  s_REG_BANK_3                    
C:   00000020  s_BSEG_BYTES                    
C:   00000020  s__CODE                         
C:   00000022  l_GSINIT3                       
C:   0000002A  l_GSINIT4                       
C:   0000002E  l_CSEG                          
C:   00000035  s_GSINIT4                       
C:   0000005F  s_GSFINAL                       
C:   0000005F  s_GSINIT                        
C:   0000005F  s_GSINIT5                       
C:   00000062  s_CSEG                          
C:   00000080  l_DSEG                          
C:   00000090  s_CONST                         
C:   00000090  s_XINIT                         
C:   000000F8  l_SSEG                          
C:   00000100  l_IRAM                          

ASxxxx Linker V03.00/V05.40 + sdld,  page 3.
Hexadecimal  [32-Bits]

Area                                    Addr        Size        Decimal Bytes (Attributes)
--------------------------------        ----        ----        ------- ----- ------------
.  .ABS.                            00000000    00000000 =           0. bytes (ABS,CON)

      Value  Global                              Global Defined In Module
      -----  --------------------------------   ------------------------
     00000000  .__.ABS.                           _startup
     00000080  _ADC_CHAN0                         utils
     00000080  _ADC_CTRL                          utils
     00000080  _P0                                main
     00000080  _P0_0                              main
     00000081  _ADC_CHAN1                         utils
     00000081  _P0_1                              main
     00000081  _SP                                utils
     00000082  _DPL                               utils
     00000082  _P0_2                              main
     00000083  _CMP_CHAN                          utils
     00000083  _DPH                               utils
     00000083  _P0_3                              main
     00000084  _ADC_START                         utils
     00000084  _P0_4                              main
     00000084  _ROM_ADDR_L                        utils
     00000085  _ADC_IF                            utils
     00000085  _P0_5                              main
     00000085  _ROM_ADDR_H                        utils
     00000086  _CMP_IF                            utils
     00000086  _P0_6                              main
     00000086  _ROM_CTRL                          utils
     00000087  _CMPO                              utils
     00000087  _P0_7                              main
     00000087  _PCON                              utils
     00000088  _IT0                               utils
     00000088  _TCON                              utils
     00000089  _IE0                               utils
     00000089  _TMOD                              utils
     0000008A  _IT1                               utils
     0000008A  _TL0                               utils
     0000008B  _IE1                               utils
     0000008B  _TL1                               utils
     0000008C  _TH0                               utils
     0000008C  _TR0                               utils
     0000008D  _TF0                               utils
     0000008D  _TH1                               utils
     0000008E  _ROM_DATA_L                        utils
     0000008E  _TR1                               utils
     0000008F  _ROM_DATA_H                        utils
     0000008F  _TF1                               utils
     00000090  _CAP1                              utils
     00000090  _P1                                utils
     00000090  _P1_0                              main
     00000090  _T2                                utils
     00000090  _TIN0                              utils
     00000091  _AIN0                              utils
     00000091  _CAP2                              utils
     00000091  _P1_1                              main
     00000091  _T2EX                              utils
ASxxxx Linker V03.00/V05.40 + sdld,  page 4.
Hexadecimal  [32-Bits]

Area                                    Addr        Size        Decimal Bytes (Attributes)
--------------------------------        ----        ----        ------- ----- ------------
.  .ABS.                            00000000    00000000 =           0. bytes (ABS,CON)

      Value  Global                              Global Defined In Module
      -----  --------------------------------   ------------------------
     00000091  _TIN1                              utils
     00000091  _USB_C_CTRL                        utils
     00000091  _VBUS2                             utils
     00000092  _P1_2                              main
     00000092  _P1_MOD_OC                         utils
     00000092  _RXD_                              utils
     00000093  _P1_3                              main
     00000093  _P1_DIR_PU                         utils
     00000093  _TXD_                              utils
     00000094  _AIN1                              utils
     00000094  _CAP1_                             utils
     00000094  _P1_4                              main
     00000094  _SCS                               utils
     00000094  _T2_                               utils
     00000094  _TIN2                              utils
     00000094  _UCC1                              utils
     00000095  _AIN2                              utils
     00000095  _MOSI                              utils
     00000095  _P1_5                              main
     00000095  _PWM1                              utils
     00000095  _TIN3                              utils
     00000095  _UCC2                              utils
     00000096  _MISO                              utils
     00000096  _P1_6                              main
     00000096  _P3_MOD_OC                         utils
     00000096  _RXD1                              utils
     00000096  _TIN4                              utils
     00000097  _P1_7                              main
     00000097  _P3_DIR_PU                         utils
     00000097  _SCK                               utils
     00000097  _TIN5                              utils
     00000097  _TXD1                              utils
     00000098  _RI                                utils
     00000098  _SCON                              utils
     00000099  _SBUF                              utils
     00000099  _TI                                utils
     0000009A  _ADC_CFG                           utils
     0000009A  _RB8                               utils
     0000009B  _PWM_DATA2                         utils
     0000009B  _TB8                               utils
     0000009C  _PWM_DATA1                         utils
     0000009C  _REN                               utils
     0000009D  _PWM_CTRL                          utils
     0000009D  _SM2                               utils
     0000009E  _PWM_CK_SE                         utils
     0000009E  _SM1                               utils
     0000009F  _ADC_DATA                          utils
     0000009F  _SM0                               utils
     000000A0  _P2                                utils
     000000A0  _P2_0                              main
     000000A0  __XPAGE                            
ASxxxx Linker V03.00/V05.40 + sdld,  page 5.
Hexadecimal  [32-Bits]

Area                                    Addr        Size        Decimal Bytes (Attributes)
--------------------------------        ----        ----        ------- ----- ------------
.  .ABS.                            00000000    00000000 =           0. bytes (ABS,CON)

      Value  Global                              Global Defined In Module
      -----  --------------------------------   ------------------------
     000000A1  _P2_1                              main
     000000A1  _SAFE_MOD                          utils
     000000A2  _P2_2                              main
     000000A2  _XBUS_AUX                          utils
     000000A3  _P2_3                              main
     000000A4  _P2_4                              main
     000000A5  _P2_5                              main
     000000A6  _P2_6                              main
     000000A7  _P2_7                              main
     000000A8  _EX0                               utils
     000000A8  _IE                                utils
     000000A9  _ET0                               utils
     000000A9  _WAKE_CTRL                         utils
     000000AA  _EX1                               utils
     000000AB  _ET1                               utils
     000000AC  _ES                                utils
     000000AD  _ET2                               utils
     000000AE  _E_DIS                             utils
     000000AF  _EA                                utils
     000000B0  _P3                                utils
     000000B0  _P3_0                              main
     000000B0  _PWM1_                             utils
     000000B0  _RXD                               utils
     000000B1  _GLOBAL_CFG                        utils
     000000B1  _P3_1                              main
     000000B1  _PWM2_                             utils
     000000B1  _TXD                               utils
     000000B2  _AIN3                              utils
     000000B2  _INT0                              utils
     000000B2  _P3_2                              main
     000000B2  _TXD1_                             utils
     000000B2  _VBUS1                             utils
     000000B3  _INT1                              utils
     000000B3  _P3_3                              main
     000000B4  _P3_4                              main
     000000B4  _PWM2                              utils
     000000B4  _RXD1_                             utils
     000000B4  _T0                                utils
     000000B5  _P3_5                              main
     000000B5  _T1                                utils
     000000B6  _P3_6                              main
     000000B6  _UDP                               utils
     000000B6  _WR                                main
     000000B7  _P3_7                              main
     000000B7  _RD                                main
     000000B7  _UDM                               utils
     000000B8  _IP                                utils
     000000B8  _PX0                               utils
     000000B9  _CLOCK_CFG                         utils
     000000B9  _PT0                               utils
     000000BA  _PX1                               utils
ASxxxx Linker V03.00/V05.40 + sdld,  page 6.
Hexadecimal  [32-Bits]

Area                                    Addr        Size        Decimal Bytes (Attributes)
--------------------------------        ----        ----        ------- ----- ------------
.  .ABS.                            00000000    00000000 =           0. bytes (ABS,CON)

      Value  Global                              Global Defined In Module
      -----  --------------------------------   ------------------------
     000000BB  _PT1                               utils
     000000BC  _PS                                utils
     000000BD  _PT2                               utils
     000000BE  _PL_FLAG                           utils
     000000BF  _PH_FLAG                           utils
     000000C0  _SCON1                             utils
     000000C0  _U1RI                              utils
     000000C1  _SBUF1                             utils
     000000C1  _U1TI                              utils
     000000C2  _SBAUD1                            utils
     000000C2  _U1RB8                             utils
     000000C3  _TKEY_CTRL                         utils
     000000C3  _U1TB8                             utils
     000000C4  _TKEY_DATL                         utils
     000000C4  _U1REN                             utils
     000000C5  _TKEY_DATH                         utils
     000000C5  _U1SMOD                            utils
     000000C6  _PIN_FUNC                          utils
     000000C7  _GPIO_IE                           utils
     000000C7  _U1SM0                             utils
     000000C8  _CP_RL2                            utils
     000000C8  _T2CON                             utils
     000000C9  _C_T2                              utils
     000000C9  _T2MOD                             utils
     000000CA  _RCAP2L                            utils
     000000CA  _TR2                               utils
     000000CB  _EXEN2                             utils
     000000CB  _RCAP2H                            utils
     000000CC  _TCLK                              utils
     000000CC  _TL2                               utils
     000000CD  _RCLK                              utils
     000000CD  _TH2                               utils
     000000CE  _EXF2                              utils
     000000CE  _T2CAP1L                           utils
     000000CF  _CAP1F                             utils
     000000CF  _T2CAP1H                           utils
     000000CF  _TF2                               utils
     000000D0  _P                                 utils
     000000D0  _PSW                               utils
     000000D1  _F1                                utils
     000000D1  _UDEV_CTRL                         utils
     000000D2  _OV                                utils
     000000D2  _UEP1_CTRL                         utils
     000000D3  _RS0                               utils
     000000D3  _UEP1_T_LEN                        utils
     000000D4  _RS1                               utils
     000000D4  _UEP2_CTRL                         utils
     000000D5  _F0                                utils
     000000D5  _UEP2_T_LEN                        utils
     000000D6  _AC                                utils
     000000D6  _UEP3_CTRL                         utils
ASxxxx Linker V03.00/V05.40 + sdld,  page 7.
Hexadecimal  [32-Bits]

Area                                    Addr        Size        Decimal Bytes (Attributes)
--------------------------------        ----        ----        ------- ----- ------------
.  .ABS.                            00000000    00000000 =           0. bytes (ABS,CON)

      Value  Global                              Global Defined In Module
      -----  --------------------------------   ------------------------
     000000D7  _CY                                utils
     000000D7  _UEP3_T_LEN                        utils
     000000D8  _UIF_BUS_RST                       utils
     000000D8  _USB_INT_FG                        utils
     000000D9  _UIF_TRANSFER                      utils
     000000D9  _USB_INT_ST                        utils
     000000DA  _UIF_SUSPEND                       utils
     000000DA  _USB_MIS_ST                        utils
     000000DB  _USB_RX_LEN                        utils
     000000DC  _UEP0_CTRL                         utils
     000000DC  _UIF_FIFO_OV                       utils
     000000DD  _UEP0_T_LEN                        utils
     000000DD  _U_SIE_FREE                        utils
     000000DE  _UEP4_CTRL                         utils
     000000DE  _U_TOG_OK                          utils
     000000DF  _UEP4_T_LEN                        utils
     000000DF  _U_IS_NAK                          utils
     000000E0  _ACC                               utils
     000000E1  _USB_INT_EN                        utils
     000000E2  _USB_CTRL                          utils
     000000E3  _USB_DEV_AD                        utils
     000000E4  _UEP2_DMA_L                        utils
     000000E5  _UEP2_DMA_H                        utils
     000000E6  _UEP3_DMA_L                        utils
     000000E7  _UEP3_DMA_H                        utils
     000000E8  _IE_EX                             utils
     000000E8  _IE_SPI0                           utils
     000000E9  _IE_TKEY                           utils
     000000E9  _IP_EX                             utils
     000000EA  _IE_USB                            utils
     000000EA  _UEP4_1_MOD                        utils
     000000EB  _IE_ADC                            utils
     000000EB  _UEP2_3_MOD                        utils
     000000EC  _IE_UART1                          utils
     000000EC  _UEP0_DMA_L                        utils
     000000ED  _IE_PWMX                           utils
     000000ED  _UEP0_DMA_H                        utils
     000000EE  _IE_GPIO                           utils
     000000EE  _UEP1_DMA_L                        utils
     000000EF  _IE_WDOG                           utils
     000000EF  _UEP1_DMA_H                        utils
     000000F0  _B                                 utils
     000000F8  _S0_R_FIFO                         utils
     000000F8  _SPI0_STAT                         utils
     000000F9  _SPI0_DATA                         utils
     000000FA  _S0_T_FIFO                         utils
     000000FA  _SPI0_CTRL                         utils
     000000FB  _S0_FREE                           utils
     000000FB  _SPI0_CK_SE                        utils
     000000FC  _S0_IF_BYTE                        utils
     000000FC  _SPI0_SETUP                        utils
ASxxxx Linker V03.00/V05.40 + sdld,  page 8.
Hexadecimal  [32-Bits]

Area                                    Addr        Size        Decimal Bytes (Attributes)
--------------------------------        ----        ----        ------- ----- ------------
.  .ABS.                            00000000    00000000 =           0. bytes (ABS,CON)

      Value  Global                              Global Defined In Module
      -----  --------------------------------   ------------------------
     000000FD  _S0_IF_FIRST                       utils
     000000FE  _RESET_KEEP                        utils
     000000FE  _S0_IF_OV                          utils
     000000FF  _S0_FST_ACT                        utils
     000000FF  _WDOG_COUNT                        utils
     00008584  _ROM_ADDR                          utils
     00008F8E  _ROM_DATA                          utils
     0000C5C4  _TKEY_DAT                          utils
     0000CBCA  _RCAP2                             utils
     0000CDCC  _T2COUNT                           utils
     0000CFCE  _T2CAP1                            utils
     0000E5E4  _UEP2_DMA                          utils
     0000E7E6  _UEP3_DMA                          utils
     0000EDEC  _UEP0_DMA                          utils
     0000EFEE  _UEP1_DMA                          utils

ASxxxx Linker V03.00/V05.40 + sdld,  page 9.
Hexadecimal  [32-Bits]

Area                                    Addr        Size        Decimal Bytes (Attributes)
--------------------------------        ----        ----        ------- ----- ------------
REG_BANK_0                          00000000    00000008 =           8. bytes (REL,OVR)

      Value  Global                              Global Defined In Module
      -----  --------------------------------   ------------------------
ASxxxx Linker V03.00/V05.40 + sdld,  page 10.
Hexadecimal  [32-Bits]

Area                                    Addr        Size        Decimal Bytes (Attributes)
--------------------------------        ----        ----        ------- ----- ------------
DSEG                                00000000    00000080 =         128. bytes (REL,CON)

      Value  Global                              Global Defined In Module
      -----  --------------------------------   ------------------------
ASxxxx Linker V03.00/V05.40 + sdld,  page 11.
Hexadecimal  [32-Bits]

Area                                    Addr        Size        Decimal Bytes (Attributes)
--------------------------------        ----        ----        ------- ----- ------------
SSEG                                00000008    000000F8 =         248. bytes (REL,OVR)

      Value  Global                              Global Defined In Module
      -----  --------------------------------   ------------------------
     00000008  __start__stack                     main

ASxxxx Linker V03.00/V05.40 + sdld,  page 12.
Hexadecimal  [32-Bits]

Area                                    Addr        Size        Decimal Bytes (Attributes)
--------------------------------        ----        ----        ------- ----- ------------
HOME                                00000000    00000006 =           6. bytes (REL,CON,CODE)

      Value  Global                              Global Defined In Module
      -----  --------------------------------   ------------------------
C:   00000003  __sdcc_program_startup             main

ASxxxx Linker V03.00/V05.40 + sdld,  page 13.
Hexadecimal  [32-Bits]

Area                                    Addr        Size        Decimal Bytes (Attributes)
--------------------------------        ----        ----        ------- ----- ------------
GSINIT0                             00000006    00000003 =           3. bytes (REL,CON,CODE)

      Value  Global                              Global Defined In Module
      -----  --------------------------------   ------------------------
C:   00000006  __sdcc_gsinit_startup              

ASxxxx Linker V03.00/V05.40 + sdld,  page 14.
Hexadecimal  [32-Bits]

Area                                    Addr        Size        Decimal Bytes (Attributes)
--------------------------------        ----        ----        ------- ----- ------------
GSINIT2                             00000009    0000000A =          10. bytes (REL,CON,CODE)

      Value  Global                              Global Defined In Module
      -----  --------------------------------   ------------------------
ASxxxx Linker V03.00/V05.40 + sdld,  page 15.
Hexadecimal  [32-Bits]

Area                                    Addr        Size        Decimal Bytes (Attributes)
--------------------------------        ----        ----        ------- ----- ------------
GSINIT3                             00000013    00000022 =          34. bytes (REL,CON,CODE)

      Value  Global                              Global Defined In Module
      -----  --------------------------------   ------------------------
C:   00000013  __mcs51_genXINIT                   

ASxxxx Linker V03.00/V05.40 + sdld,  page 16.
Hexadecimal  [32-Bits]

Area                                    Addr        Size        Decimal Bytes (Attributes)
--------------------------------        ----        ----        ------- ----- ------------
GSINIT4                             00000035    0000002A =          42. bytes (REL,CON,CODE)

      Value  Global                              Global Defined In Module
      -----  --------------------------------   ------------------------
C:   00000035  __mcs51_genRAMCLEAR                
C:   0000003B  __mcs51_genXRAMCLEAR               

ASxxxx Linker V03.00/V05.40 + sdld,  page 17.
Hexadecimal  [32-Bits]

Area                                    Addr        Size        Decimal Bytes (Attributes)
--------------------------------        ----        ----        ------- ----- ------------
GSFINAL                             0000005F    00000003 =           3. bytes (REL,CON,CODE)

      Value  Global                              Global Defined In Module
      -----  --------------------------------   ------------------------
ASxxxx Linker V03.00/V05.40 + sdld,  page 18.
Hexadecimal  [32-Bits]

Area                                    Addr        Size        Decimal Bytes (Attributes)
--------------------------------        ----        ----        ------- ----- ------------
CSEG                                00000062    0000002E =          46. bytes (REL,CON,CODE)

      Value  Global                              Global Defined In Module
      -----  --------------------------------   ------------------------
C:   00000062  _main                              main
C:   00000068  _delay                             utils
C:   0000008C  ___sdcc_external_startup           _startup
ASxxxx Linker V03.00/V05.40 + sdld,  page 19.

Files Linked                              [ module(s) ]

../build/build_files/main.rel             [  ]
../build/build_files/utils.rel            [  ]


Libraries Linked                          [ object file ]

/usr/local/bin/../share/sdcc/lib/small/mcs51.lib
                                          [ crtclear.rel ]
/usr/local/bin/../share/sdcc/lib/small/mcs51.lib
                                          [ crtxinit.rel ]
/usr/local/bin/../share/sdcc/lib/small/mcs51.lib
                                          [ crtxclear.rel ]
/usr/local/bin/../share/sdcc/lib/small/mcs51.lib
                                          [ crtpagesfr.rel ]
/usr/local/bin/../share/sdcc/lib/small/mcs51.lib
                                          [ crtstart.rel ]
/usr/local/bin/../share/sdcc/lib/small/libsdcc.lib
                                          [ _startup.rel ]

ASxxxx Linker V03.00/V05.40 + sdld,  page 20.

User Base Address Definitions

HOME = 0x0000
XSEG = 0x0001
PSEG = 0x0001
ISEG = 0x0000
BSEG = 0x0000

