                                      1 ;--------------------------------------------------------
                                      2 ; File Created by SDCC : free open source ISO C Compiler 
                                      3 ; Version 4.4.0 #14620 (Mac OS X x86_64)
                                      4 ;--------------------------------------------------------
                                      5 	.module utils
                                      6 	.optsdcc -mmcs51 --model-small
                                      7 	
                                      8 ;--------------------------------------------------------
                                      9 ; Public variables in this module
                                     10 ;--------------------------------------------------------
                                     11 	.globl _timer_interrupt_PARM_2
                                     12 	.globl _update_timer_reg_PARM_2
                                     13 	.globl _select_tmr_clk_src_PARM_2
                                     14 	.globl _select_timer_clk_PARM_2
                                     15 	.globl _set_timer_mode_PARM_2
                                     16 	.globl _set_port_value_PARM_2
                                     17 	.globl _set_port_dir_PARM_2
                                     18 	.globl _set_output_mode_PARM_2
                                     19 	.globl _is_adc_done
                                     20 	.globl _start_adc
                                     21 	.globl _strlen
                                     22 	.globl _strcat
                                     23 	.globl _strcpy
                                     24 	.globl _DeviceSerialNumber
                                     25 	.globl _UIF_BUS_RST
                                     26 	.globl _UIF_TRANSFER
                                     27 	.globl _UIF_SUSPEND
                                     28 	.globl _UIF_FIFO_OV
                                     29 	.globl _U_SIE_FREE
                                     30 	.globl _U_TOG_OK
                                     31 	.globl _U_IS_NAK
                                     32 	.globl _ADC_CHAN0
                                     33 	.globl _ADC_CHAN1
                                     34 	.globl _CMP_CHAN
                                     35 	.globl _ADC_START
                                     36 	.globl _ADC_IF
                                     37 	.globl _CMP_IF
                                     38 	.globl _CMPO
                                     39 	.globl _U1RI
                                     40 	.globl _U1TI
                                     41 	.globl _U1RB8
                                     42 	.globl _U1TB8
                                     43 	.globl _U1REN
                                     44 	.globl _U1SMOD
                                     45 	.globl _U1SM0
                                     46 	.globl _S0_R_FIFO
                                     47 	.globl _S0_T_FIFO
                                     48 	.globl _S0_FREE
                                     49 	.globl _S0_IF_BYTE
                                     50 	.globl _S0_IF_FIRST
                                     51 	.globl _S0_IF_OV
                                     52 	.globl _S0_FST_ACT
                                     53 	.globl _CP_RL2
                                     54 	.globl _C_T2
                                     55 	.globl _TR2
                                     56 	.globl _EXEN2
                                     57 	.globl _TCLK
                                     58 	.globl _RCLK
                                     59 	.globl _EXF2
                                     60 	.globl _CAP1F
                                     61 	.globl _TF2
                                     62 	.globl _RI
                                     63 	.globl _TI
                                     64 	.globl _RB8
                                     65 	.globl _TB8
                                     66 	.globl _REN
                                     67 	.globl _SM2
                                     68 	.globl _SM1
                                     69 	.globl _SM0
                                     70 	.globl _IT0
                                     71 	.globl _IE0
                                     72 	.globl _IT1
                                     73 	.globl _IE1
                                     74 	.globl _TR0
                                     75 	.globl _TF0
                                     76 	.globl _TR1
                                     77 	.globl _TF1
                                     78 	.globl _RXD
                                     79 	.globl _PWM1_
                                     80 	.globl _TXD
                                     81 	.globl _PWM2_
                                     82 	.globl _AIN3
                                     83 	.globl _VBUS1
                                     84 	.globl _INT0
                                     85 	.globl _TXD1_
                                     86 	.globl _INT1
                                     87 	.globl _T0
                                     88 	.globl _RXD1_
                                     89 	.globl _PWM2
                                     90 	.globl _T1
                                     91 	.globl _UDP
                                     92 	.globl _UDM
                                     93 	.globl _TIN0
                                     94 	.globl _CAP1
                                     95 	.globl _T2
                                     96 	.globl _AIN0
                                     97 	.globl _VBUS2
                                     98 	.globl _TIN1
                                     99 	.globl _CAP2
                                    100 	.globl _T2EX
                                    101 	.globl _RXD_
                                    102 	.globl _TXD_
                                    103 	.globl _AIN1
                                    104 	.globl _UCC1
                                    105 	.globl _TIN2
                                    106 	.globl _SCS
                                    107 	.globl _CAP1_
                                    108 	.globl _T2_
                                    109 	.globl _AIN2
                                    110 	.globl _UCC2
                                    111 	.globl _TIN3
                                    112 	.globl _PWM1
                                    113 	.globl _MOSI
                                    114 	.globl _TIN4
                                    115 	.globl _RXD1
                                    116 	.globl _MISO
                                    117 	.globl _TIN5
                                    118 	.globl _TXD1
                                    119 	.globl _SCK
                                    120 	.globl _IE_SPI0
                                    121 	.globl _IE_TKEY
                                    122 	.globl _IE_USB
                                    123 	.globl _IE_ADC
                                    124 	.globl _IE_UART1
                                    125 	.globl _IE_PWMX
                                    126 	.globl _IE_GPIO
                                    127 	.globl _IE_WDOG
                                    128 	.globl _PX0
                                    129 	.globl _PT0
                                    130 	.globl _PX1
                                    131 	.globl _PT1
                                    132 	.globl _PS
                                    133 	.globl _PT2
                                    134 	.globl _PL_FLAG
                                    135 	.globl _PH_FLAG
                                    136 	.globl _EX0
                                    137 	.globl _ET0
                                    138 	.globl _EX1
                                    139 	.globl _ET1
                                    140 	.globl _ES
                                    141 	.globl _ET2
                                    142 	.globl _E_DIS
                                    143 	.globl _EA
                                    144 	.globl _P
                                    145 	.globl _F1
                                    146 	.globl _OV
                                    147 	.globl _RS0
                                    148 	.globl _RS1
                                    149 	.globl _F0
                                    150 	.globl _AC
                                    151 	.globl _CY
                                    152 	.globl _UEP1_DMA_H
                                    153 	.globl _UEP1_DMA_L
                                    154 	.globl _UEP1_DMA
                                    155 	.globl _UEP0_DMA_H
                                    156 	.globl _UEP0_DMA_L
                                    157 	.globl _UEP0_DMA
                                    158 	.globl _UEP2_3_MOD
                                    159 	.globl _UEP4_1_MOD
                                    160 	.globl _UEP3_DMA_H
                                    161 	.globl _UEP3_DMA_L
                                    162 	.globl _UEP3_DMA
                                    163 	.globl _UEP2_DMA_H
                                    164 	.globl _UEP2_DMA_L
                                    165 	.globl _UEP2_DMA
                                    166 	.globl _USB_DEV_AD
                                    167 	.globl _USB_CTRL
                                    168 	.globl _USB_INT_EN
                                    169 	.globl _UEP4_T_LEN
                                    170 	.globl _UEP4_CTRL
                                    171 	.globl _UEP0_T_LEN
                                    172 	.globl _UEP0_CTRL
                                    173 	.globl _USB_RX_LEN
                                    174 	.globl _USB_MIS_ST
                                    175 	.globl _USB_INT_ST
                                    176 	.globl _USB_INT_FG
                                    177 	.globl _UEP3_T_LEN
                                    178 	.globl _UEP3_CTRL
                                    179 	.globl _UEP2_T_LEN
                                    180 	.globl _UEP2_CTRL
                                    181 	.globl _UEP1_T_LEN
                                    182 	.globl _UEP1_CTRL
                                    183 	.globl _UDEV_CTRL
                                    184 	.globl _USB_C_CTRL
                                    185 	.globl _TKEY_DATH
                                    186 	.globl _TKEY_DATL
                                    187 	.globl _TKEY_DAT
                                    188 	.globl _TKEY_CTRL
                                    189 	.globl _ADC_DATA
                                    190 	.globl _ADC_CFG
                                    191 	.globl _ADC_CTRL
                                    192 	.globl _SBAUD1
                                    193 	.globl _SBUF1
                                    194 	.globl _SCON1
                                    195 	.globl _SPI0_SETUP
                                    196 	.globl _SPI0_CK_SE
                                    197 	.globl _SPI0_CTRL
                                    198 	.globl _SPI0_DATA
                                    199 	.globl _SPI0_STAT
                                    200 	.globl _PWM_CK_SE
                                    201 	.globl _PWM_CTRL
                                    202 	.globl _PWM_DATA1
                                    203 	.globl _PWM_DATA2
                                    204 	.globl _T2CAP1H
                                    205 	.globl _T2CAP1L
                                    206 	.globl _T2CAP1
                                    207 	.globl _TH2
                                    208 	.globl _TL2
                                    209 	.globl _T2COUNT
                                    210 	.globl _RCAP2H
                                    211 	.globl _RCAP2L
                                    212 	.globl _RCAP2
                                    213 	.globl _T2MOD
                                    214 	.globl _T2CON
                                    215 	.globl _SBUF
                                    216 	.globl _SCON
                                    217 	.globl _TH1
                                    218 	.globl _TH0
                                    219 	.globl _TL1
                                    220 	.globl _TL0
                                    221 	.globl _TMOD
                                    222 	.globl _TCON
                                    223 	.globl _XBUS_AUX
                                    224 	.globl _PIN_FUNC
                                    225 	.globl _P3_DIR_PU
                                    226 	.globl _P3_MOD_OC
                                    227 	.globl _P3
                                    228 	.globl _P2
                                    229 	.globl _P1_DIR_PU
                                    230 	.globl _P1_MOD_OC
                                    231 	.globl _P1
                                    232 	.globl _ROM_CTRL
                                    233 	.globl _ROM_DATA_H
                                    234 	.globl _ROM_DATA_L
                                    235 	.globl _ROM_DATA
                                    236 	.globl _ROM_ADDR_H
                                    237 	.globl _ROM_ADDR_L
                                    238 	.globl _ROM_ADDR
                                    239 	.globl _GPIO_IE
                                    240 	.globl _IP_EX
                                    241 	.globl _IE_EX
                                    242 	.globl _IP
                                    243 	.globl _IE
                                    244 	.globl _WDOG_COUNT
                                    245 	.globl _RESET_KEEP
                                    246 	.globl _WAKE_CTRL
                                    247 	.globl _CLOCK_CFG
                                    248 	.globl _PCON
                                    249 	.globl _GLOBAL_CFG
                                    250 	.globl _SAFE_MOD
                                    251 	.globl _DPH
                                    252 	.globl _DPL
                                    253 	.globl _SP
                                    254 	.globl _B
                                    255 	.globl _ACC
                                    256 	.globl _PSW
                                    257 	.globl _pwd
                                    258 	.globl _ssid
                                    259 	.globl _instruction
                                    260 	.globl _getURL_PARM_4
                                    261 	.globl _getURL_PARM_3
                                    262 	.globl _getURL_PARM_2
                                    263 	.globl _convert_PARM_2
                                    264 	.globl _search_str_PARM_2
                                    265 	.globl _uart0_read_string_until_PARM_4
                                    266 	.globl _uart0_read_string_until_PARM_3
                                    267 	.globl _uart0_read_string_until_PARM_2
                                    268 	.globl _uart0_read_bytes_PARM_3
                                    269 	.globl _uart0_read_bytes_PARM_2
                                    270 	.globl _uart0_receive_byte_PARM_2
                                    271 	.globl _uart_begin_PARM_2
                                    272 	.globl _configure_port_PARM_2
                                    273 	.globl _delay
                                    274 	.globl _set_output_mode
                                    275 	.globl _read_output_mode
                                    276 	.globl _set_port_dir
                                    277 	.globl _read_port_dir
                                    278 	.globl _set_port_value
                                    279 	.globl _read_port_value
                                    280 	.globl _configure_port
                                    281 	.globl _ADC_Enable
                                    282 	.globl _set_ADC_speed
                                    283 	.globl _set_ADC_channel
                                    284 	.globl _analog_read
                                    285 	.globl _bit_bang_uart_begin
                                    286 	.globl _bit_bang_uart_tx
                                    287 	.globl _print
                                    288 	.globl _println
                                    289 	.globl _get_system_freq
                                    290 	.globl _set_timer_mode
                                    291 	.globl _select_timer_clk
                                    292 	.globl _select_tmr_clk_src
                                    293 	.globl _update_timer_reg
                                    294 	.globl _timer_interrupt
                                    295 	.globl _start_timer
                                    296 	.globl _stop_timer
                                    297 	.globl _uart_begin
                                    298 	.globl _uart0_write
                                    299 	.globl _uart0_print
                                    300 	.globl _uart0_println
                                    301 	.globl _uart0_receive_byte
                                    302 	.globl _uart0_read_bytes
                                    303 	.globl _uart0_read_string_until
                                    304 	.globl _search_str
                                    305 	.globl _convert_to_percentage
                                    306 	.globl _convert
                                    307 	.globl _getURL
                                    308 ;--------------------------------------------------------
                                    309 ; special function registers
                                    310 ;--------------------------------------------------------
                                    311 	.area RSEG    (ABS,DATA)
      000000                        312 	.org 0x0000
                           0000D0   313 _PSW	=	0x00d0
                           0000E0   314 _ACC	=	0x00e0
                           0000F0   315 _B	=	0x00f0
                           000081   316 _SP	=	0x0081
                           000082   317 _DPL	=	0x0082
                           000083   318 _DPH	=	0x0083
                           0000A1   319 _SAFE_MOD	=	0x00a1
                           0000B1   320 _GLOBAL_CFG	=	0x00b1
                           000087   321 _PCON	=	0x0087
                           0000B9   322 _CLOCK_CFG	=	0x00b9
                           0000A9   323 _WAKE_CTRL	=	0x00a9
                           0000FE   324 _RESET_KEEP	=	0x00fe
                           0000FF   325 _WDOG_COUNT	=	0x00ff
                           0000A8   326 _IE	=	0x00a8
                           0000B8   327 _IP	=	0x00b8
                           0000E8   328 _IE_EX	=	0x00e8
                           0000E9   329 _IP_EX	=	0x00e9
                           0000C7   330 _GPIO_IE	=	0x00c7
                           008584   331 _ROM_ADDR	=	0x8584
                           000084   332 _ROM_ADDR_L	=	0x0084
                           000085   333 _ROM_ADDR_H	=	0x0085
                           008F8E   334 _ROM_DATA	=	0x8f8e
                           00008E   335 _ROM_DATA_L	=	0x008e
                           00008F   336 _ROM_DATA_H	=	0x008f
                           000086   337 _ROM_CTRL	=	0x0086
                           000090   338 _P1	=	0x0090
                           000092   339 _P1_MOD_OC	=	0x0092
                           000093   340 _P1_DIR_PU	=	0x0093
                           0000A0   341 _P2	=	0x00a0
                           0000B0   342 _P3	=	0x00b0
                           000096   343 _P3_MOD_OC	=	0x0096
                           000097   344 _P3_DIR_PU	=	0x0097
                           0000C6   345 _PIN_FUNC	=	0x00c6
                           0000A2   346 _XBUS_AUX	=	0x00a2
                           000088   347 _TCON	=	0x0088
                           000089   348 _TMOD	=	0x0089
                           00008A   349 _TL0	=	0x008a
                           00008B   350 _TL1	=	0x008b
                           00008C   351 _TH0	=	0x008c
                           00008D   352 _TH1	=	0x008d
                           000098   353 _SCON	=	0x0098
                           000099   354 _SBUF	=	0x0099
                           0000C8   355 _T2CON	=	0x00c8
                           0000C9   356 _T2MOD	=	0x00c9
                           00CBCA   357 _RCAP2	=	0xcbca
                           0000CA   358 _RCAP2L	=	0x00ca
                           0000CB   359 _RCAP2H	=	0x00cb
                           00CDCC   360 _T2COUNT	=	0xcdcc
                           0000CC   361 _TL2	=	0x00cc
                           0000CD   362 _TH2	=	0x00cd
                           00CFCE   363 _T2CAP1	=	0xcfce
                           0000CE   364 _T2CAP1L	=	0x00ce
                           0000CF   365 _T2CAP1H	=	0x00cf
                           00009B   366 _PWM_DATA2	=	0x009b
                           00009C   367 _PWM_DATA1	=	0x009c
                           00009D   368 _PWM_CTRL	=	0x009d
                           00009E   369 _PWM_CK_SE	=	0x009e
                           0000F8   370 _SPI0_STAT	=	0x00f8
                           0000F9   371 _SPI0_DATA	=	0x00f9
                           0000FA   372 _SPI0_CTRL	=	0x00fa
                           0000FB   373 _SPI0_CK_SE	=	0x00fb
                           0000FC   374 _SPI0_SETUP	=	0x00fc
                           0000C0   375 _SCON1	=	0x00c0
                           0000C1   376 _SBUF1	=	0x00c1
                           0000C2   377 _SBAUD1	=	0x00c2
                           000080   378 _ADC_CTRL	=	0x0080
                           00009A   379 _ADC_CFG	=	0x009a
                           00009F   380 _ADC_DATA	=	0x009f
                           0000C3   381 _TKEY_CTRL	=	0x00c3
                           00C5C4   382 _TKEY_DAT	=	0xc5c4
                           0000C4   383 _TKEY_DATL	=	0x00c4
                           0000C5   384 _TKEY_DATH	=	0x00c5
                           000091   385 _USB_C_CTRL	=	0x0091
                           0000D1   386 _UDEV_CTRL	=	0x00d1
                           0000D2   387 _UEP1_CTRL	=	0x00d2
                           0000D3   388 _UEP1_T_LEN	=	0x00d3
                           0000D4   389 _UEP2_CTRL	=	0x00d4
                           0000D5   390 _UEP2_T_LEN	=	0x00d5
                           0000D6   391 _UEP3_CTRL	=	0x00d6
                           0000D7   392 _UEP3_T_LEN	=	0x00d7
                           0000D8   393 _USB_INT_FG	=	0x00d8
                           0000D9   394 _USB_INT_ST	=	0x00d9
                           0000DA   395 _USB_MIS_ST	=	0x00da
                           0000DB   396 _USB_RX_LEN	=	0x00db
                           0000DC   397 _UEP0_CTRL	=	0x00dc
                           0000DD   398 _UEP0_T_LEN	=	0x00dd
                           0000DE   399 _UEP4_CTRL	=	0x00de
                           0000DF   400 _UEP4_T_LEN	=	0x00df
                           0000E1   401 _USB_INT_EN	=	0x00e1
                           0000E2   402 _USB_CTRL	=	0x00e2
                           0000E3   403 _USB_DEV_AD	=	0x00e3
                           00E5E4   404 _UEP2_DMA	=	0xe5e4
                           0000E4   405 _UEP2_DMA_L	=	0x00e4
                           0000E5   406 _UEP2_DMA_H	=	0x00e5
                           00E7E6   407 _UEP3_DMA	=	0xe7e6
                           0000E6   408 _UEP3_DMA_L	=	0x00e6
                           0000E7   409 _UEP3_DMA_H	=	0x00e7
                           0000EA   410 _UEP4_1_MOD	=	0x00ea
                           0000EB   411 _UEP2_3_MOD	=	0x00eb
                           00EDEC   412 _UEP0_DMA	=	0xedec
                           0000EC   413 _UEP0_DMA_L	=	0x00ec
                           0000ED   414 _UEP0_DMA_H	=	0x00ed
                           00EFEE   415 _UEP1_DMA	=	0xefee
                           0000EE   416 _UEP1_DMA_L	=	0x00ee
                           0000EF   417 _UEP1_DMA_H	=	0x00ef
                                    418 ;--------------------------------------------------------
                                    419 ; special function bits
                                    420 ;--------------------------------------------------------
                                    421 	.area RSEG    (ABS,DATA)
      000000                        422 	.org 0x0000
                           0000D7   423 _CY	=	0x00d7
                           0000D6   424 _AC	=	0x00d6
                           0000D5   425 _F0	=	0x00d5
                           0000D4   426 _RS1	=	0x00d4
                           0000D3   427 _RS0	=	0x00d3
                           0000D2   428 _OV	=	0x00d2
                           0000D1   429 _F1	=	0x00d1
                           0000D0   430 _P	=	0x00d0
                           0000AF   431 _EA	=	0x00af
                           0000AE   432 _E_DIS	=	0x00ae
                           0000AD   433 _ET2	=	0x00ad
                           0000AC   434 _ES	=	0x00ac
                           0000AB   435 _ET1	=	0x00ab
                           0000AA   436 _EX1	=	0x00aa
                           0000A9   437 _ET0	=	0x00a9
                           0000A8   438 _EX0	=	0x00a8
                           0000BF   439 _PH_FLAG	=	0x00bf
                           0000BE   440 _PL_FLAG	=	0x00be
                           0000BD   441 _PT2	=	0x00bd
                           0000BC   442 _PS	=	0x00bc
                           0000BB   443 _PT1	=	0x00bb
                           0000BA   444 _PX1	=	0x00ba
                           0000B9   445 _PT0	=	0x00b9
                           0000B8   446 _PX0	=	0x00b8
                           0000EF   447 _IE_WDOG	=	0x00ef
                           0000EE   448 _IE_GPIO	=	0x00ee
                           0000ED   449 _IE_PWMX	=	0x00ed
                           0000EC   450 _IE_UART1	=	0x00ec
                           0000EB   451 _IE_ADC	=	0x00eb
                           0000EA   452 _IE_USB	=	0x00ea
                           0000E9   453 _IE_TKEY	=	0x00e9
                           0000E8   454 _IE_SPI0	=	0x00e8
                           000097   455 _SCK	=	0x0097
                           000097   456 _TXD1	=	0x0097
                           000097   457 _TIN5	=	0x0097
                           000096   458 _MISO	=	0x0096
                           000096   459 _RXD1	=	0x0096
                           000096   460 _TIN4	=	0x0096
                           000095   461 _MOSI	=	0x0095
                           000095   462 _PWM1	=	0x0095
                           000095   463 _TIN3	=	0x0095
                           000095   464 _UCC2	=	0x0095
                           000095   465 _AIN2	=	0x0095
                           000094   466 _T2_	=	0x0094
                           000094   467 _CAP1_	=	0x0094
                           000094   468 _SCS	=	0x0094
                           000094   469 _TIN2	=	0x0094
                           000094   470 _UCC1	=	0x0094
                           000094   471 _AIN1	=	0x0094
                           000093   472 _TXD_	=	0x0093
                           000092   473 _RXD_	=	0x0092
                           000091   474 _T2EX	=	0x0091
                           000091   475 _CAP2	=	0x0091
                           000091   476 _TIN1	=	0x0091
                           000091   477 _VBUS2	=	0x0091
                           000091   478 _AIN0	=	0x0091
                           000090   479 _T2	=	0x0090
                           000090   480 _CAP1	=	0x0090
                           000090   481 _TIN0	=	0x0090
                           0000B7   482 _UDM	=	0x00b7
                           0000B6   483 _UDP	=	0x00b6
                           0000B5   484 _T1	=	0x00b5
                           0000B4   485 _PWM2	=	0x00b4
                           0000B4   486 _RXD1_	=	0x00b4
                           0000B4   487 _T0	=	0x00b4
                           0000B3   488 _INT1	=	0x00b3
                           0000B2   489 _TXD1_	=	0x00b2
                           0000B2   490 _INT0	=	0x00b2
                           0000B2   491 _VBUS1	=	0x00b2
                           0000B2   492 _AIN3	=	0x00b2
                           0000B1   493 _PWM2_	=	0x00b1
                           0000B1   494 _TXD	=	0x00b1
                           0000B0   495 _PWM1_	=	0x00b0
                           0000B0   496 _RXD	=	0x00b0
                           00008F   497 _TF1	=	0x008f
                           00008E   498 _TR1	=	0x008e
                           00008D   499 _TF0	=	0x008d
                           00008C   500 _TR0	=	0x008c
                           00008B   501 _IE1	=	0x008b
                           00008A   502 _IT1	=	0x008a
                           000089   503 _IE0	=	0x0089
                           000088   504 _IT0	=	0x0088
                           00009F   505 _SM0	=	0x009f
                           00009E   506 _SM1	=	0x009e
                           00009D   507 _SM2	=	0x009d
                           00009C   508 _REN	=	0x009c
                           00009B   509 _TB8	=	0x009b
                           00009A   510 _RB8	=	0x009a
                           000099   511 _TI	=	0x0099
                           000098   512 _RI	=	0x0098
                           0000CF   513 _TF2	=	0x00cf
                           0000CF   514 _CAP1F	=	0x00cf
                           0000CE   515 _EXF2	=	0x00ce
                           0000CD   516 _RCLK	=	0x00cd
                           0000CC   517 _TCLK	=	0x00cc
                           0000CB   518 _EXEN2	=	0x00cb
                           0000CA   519 _TR2	=	0x00ca
                           0000C9   520 _C_T2	=	0x00c9
                           0000C8   521 _CP_RL2	=	0x00c8
                           0000FF   522 _S0_FST_ACT	=	0x00ff
                           0000FE   523 _S0_IF_OV	=	0x00fe
                           0000FD   524 _S0_IF_FIRST	=	0x00fd
                           0000FC   525 _S0_IF_BYTE	=	0x00fc
                           0000FB   526 _S0_FREE	=	0x00fb
                           0000FA   527 _S0_T_FIFO	=	0x00fa
                           0000F8   528 _S0_R_FIFO	=	0x00f8
                           0000C7   529 _U1SM0	=	0x00c7
                           0000C5   530 _U1SMOD	=	0x00c5
                           0000C4   531 _U1REN	=	0x00c4
                           0000C3   532 _U1TB8	=	0x00c3
                           0000C2   533 _U1RB8	=	0x00c2
                           0000C1   534 _U1TI	=	0x00c1
                           0000C0   535 _U1RI	=	0x00c0
                           000087   536 _CMPO	=	0x0087
                           000086   537 _CMP_IF	=	0x0086
                           000085   538 _ADC_IF	=	0x0085
                           000084   539 _ADC_START	=	0x0084
                           000083   540 _CMP_CHAN	=	0x0083
                           000081   541 _ADC_CHAN1	=	0x0081
                           000080   542 _ADC_CHAN0	=	0x0080
                           0000DF   543 _U_IS_NAK	=	0x00df
                           0000DE   544 _U_TOG_OK	=	0x00de
                           0000DD   545 _U_SIE_FREE	=	0x00dd
                           0000DC   546 _UIF_FIFO_OV	=	0x00dc
                           0000DA   547 _UIF_SUSPEND	=	0x00da
                           0000D9   548 _UIF_TRANSFER	=	0x00d9
                           0000D8   549 _UIF_BUS_RST	=	0x00d8
                                    550 ;--------------------------------------------------------
                                    551 ; overlayable register banks
                                    552 ;--------------------------------------------------------
                                    553 	.area REG_BANK_0	(REL,OVR,DATA)
      000000                        554 	.ds 8
                                    555 ;--------------------------------------------------------
                                    556 ; internal ram data
                                    557 ;--------------------------------------------------------
                                    558 	.area DSEG    (DATA)
      000000                        559 _configure_port_PARM_2:
      000000                        560 	.ds 1
      000001                        561 _uart_begin_PARM_2:
      000001                        562 	.ds 4
      000005                        563 _uart0_receive_byte_PARM_2:
      000005                        564 	.ds 1
      000006                        565 _uart0_read_bytes_PARM_2:
      000006                        566 	.ds 2
      000008                        567 _uart0_read_bytes_PARM_3:
      000008                        568 	.ds 1
      000009                        569 _uart0_read_bytes_received_bytes_10000_205:
      000009                        570 	.ds 3
      00000C                        571 _uart0_read_bytes_current_recv_10000_206:
      00000C                        572 	.ds 1
      00000D                        573 _uart0_read_string_until_PARM_2:
      00000D                        574 	.ds 2
      00000F                        575 _uart0_read_string_until_PARM_3:
      00000F                        576 	.ds 1
      000010                        577 _uart0_read_string_until_PARM_4:
      000010                        578 	.ds 1
      000011                        579 _uart0_read_string_until_current_recv_10000_210:
      000011                        580 	.ds 1
      000012                        581 _search_str_PARM_2:
      000012                        582 	.ds 3
      000015                        583 _search_str_base_10000_213:
      000015                        584 	.ds 3
      000018                        585 _search_str_base_len_10001_215:
      000018                        586 	.ds 2
      00001A                        587 _search_str_str_len_10001_215:
      00001A                        588 	.ds 2
      00001C                        589 _search_str_i_20001_216:
      00001C                        590 	.ds 2
      00001E                        591 _search_str_sloc0_1_0:
      00001E                        592 	.ds 2
      000020                        593 _convert_PARM_2:
      000020                        594 	.ds 1
      000021                        595 _convert_num_10000_221:
      000021                        596 	.ds 3
      000024                        597 _convert_i_10001_223:
      000024                        598 	.ds 1
      000025                        599 _convert_temp_10001_223:
      000025                        600 	.ds 4
      000029                        601 _getURL_PARM_2:
      000029                        602 	.ds 3
      00002C                        603 _getURL_PARM_3:
      00002C                        604 	.ds 3
      00002F                        605 _getURL_PARM_4:
      00002F                        606 	.ds 3
                                    607 ;--------------------------------------------------------
                                    608 ; overlayable items in internal ram
                                    609 ;--------------------------------------------------------
                                    610 	.area	OSEG    (OVR,DATA)
                                    611 	.area	OSEG    (OVR,DATA)
      000000                        612 _set_output_mode_PARM_2:
      000000                        613 	.ds 1
                                    614 	.area	OSEG    (OVR,DATA)
                                    615 	.area	OSEG    (OVR,DATA)
      000000                        616 _set_port_dir_PARM_2:
      000000                        617 	.ds 1
                                    618 	.area	OSEG    (OVR,DATA)
                                    619 	.area	OSEG    (OVR,DATA)
      000000                        620 _set_port_value_PARM_2:
      000000                        621 	.ds 1
                                    622 	.area	OSEG    (OVR,DATA)
                                    623 	.area	OSEG    (OVR,DATA)
                                    624 	.area	OSEG    (OVR,DATA)
                                    625 	.area	OSEG    (OVR,DATA)
                                    626 	.area	OSEG    (OVR,DATA)
                                    627 	.area	OSEG    (OVR,DATA)
      000000                        628 _set_timer_mode_PARM_2:
      000000                        629 	.ds 1
                                    630 	.area	OSEG    (OVR,DATA)
      000000                        631 _select_timer_clk_PARM_2:
      000000                        632 	.ds 1
                                    633 	.area	OSEG    (OVR,DATA)
      000000                        634 _select_tmr_clk_src_PARM_2:
      000000                        635 	.ds 1
                                    636 	.area	OSEG    (OVR,DATA)
      000000                        637 _update_timer_reg_PARM_2:
      000000                        638 	.ds 2
                                    639 	.area	OSEG    (OVR,DATA)
      000000                        640 _timer_interrupt_PARM_2:
      000000                        641 	.ds 1
                                    642 	.area	OSEG    (OVR,DATA)
                                    643 	.area	OSEG    (OVR,DATA)
                                    644 	.area	OSEG    (OVR,DATA)
                                    645 ;--------------------------------------------------------
                                    646 ; indirectly addressable internal ram data
                                    647 ;--------------------------------------------------------
                                    648 	.area ISEG    (DATA)
                                    649 ;--------------------------------------------------------
                                    650 ; absolute internal ram data
                                    651 ;--------------------------------------------------------
                                    652 	.area IABS    (ABS,DATA)
                                    653 	.area IABS    (ABS,DATA)
                                    654 ;--------------------------------------------------------
                                    655 ; bit data
                                    656 ;--------------------------------------------------------
                                    657 	.area BSEG    (BIT)
                                    658 ;--------------------------------------------------------
                                    659 ; paged external ram data
                                    660 ;--------------------------------------------------------
                                    661 	.area PSEG    (PAG,XDATA)
                                    662 ;--------------------------------------------------------
                                    663 ; uninitialized external ram data
                                    664 ;--------------------------------------------------------
                                    665 	.area XSEG    (XDATA)
      000000                        666 _instruction::
      000000                        667 	.ds 50
      000032                        668 _ssid::
      000032                        669 	.ds 15
      000041                        670 _pwd::
      000041                        671 	.ds 15
      000050                        672 _uart0_println_t_10000_199:
      000050                        673 	.ds 256
      000150                        674 _getURL_id_10000_229:
      000150                        675 	.ds 15
                                    676 ;--------------------------------------------------------
                                    677 ; absolute external ram data
                                    678 ;--------------------------------------------------------
                                    679 	.area XABS    (ABS,XDATA)
                                    680 ;--------------------------------------------------------
                                    681 ; initialized external ram data
                                    682 ;--------------------------------------------------------
                                    683 	.area XISEG   (XDATA)
                                    684 	.area HOME    (CODE)
                                    685 	.area GSINIT0 (CODE)
                                    686 	.area GSINIT1 (CODE)
                                    687 	.area GSINIT2 (CODE)
                                    688 	.area GSINIT3 (CODE)
                                    689 	.area GSINIT4 (CODE)
                                    690 	.area GSINIT5 (CODE)
                                    691 	.area GSINIT  (CODE)
                                    692 	.area GSFINAL (CODE)
                                    693 	.area CSEG    (CODE)
                                    694 ;--------------------------------------------------------
                                    695 ; global & static initialisations
                                    696 ;--------------------------------------------------------
                                    697 	.area HOME    (CODE)
                                    698 	.area GSINIT  (CODE)
                                    699 	.area GSFINAL (CODE)
                                    700 	.area GSINIT  (CODE)
                                    701 ;--------------------------------------------------------
                                    702 ; Home
                                    703 ;--------------------------------------------------------
                                    704 	.area HOME    (CODE)
                                    705 	.area HOME    (CODE)
                                    706 ;--------------------------------------------------------
                                    707 ; code
                                    708 ;--------------------------------------------------------
                                    709 	.area CSEG    (CODE)
                                    710 ;------------------------------------------------------------
                                    711 ;Allocation info for local variables in function 'delay'
                                    712 ;------------------------------------------------------------
                                    713 ;ms                        Allocated to registers r6 r7 
                                    714 ;i                         Allocated to registers r4 r5 
                                    715 ;j                         Allocated to registers r2 r3 
                                    716 ;------------------------------------------------------------
                                    717 ;	../Firmware/src/utils.c:4: void delay(unsigned int ms) {
                                    718 ;	-----------------------------------------
                                    719 ;	 function delay
                                    720 ;	-----------------------------------------
      000000                        721 _delay:
                           000007   722 	ar7 = 0x07
                           000006   723 	ar6 = 0x06
                           000005   724 	ar5 = 0x05
                           000004   725 	ar4 = 0x04
                           000003   726 	ar3 = 0x03
                           000002   727 	ar2 = 0x02
                           000001   728 	ar1 = 0x01
                           000000   729 	ar0 = 0x00
      000000 AE 82            [24]  730 	mov	r6, dpl
      000002 AF 83            [24]  731 	mov	r7, dph
                                    732 ;	../Firmware/src/utils.c:6: for (i = 0; i < ms; i++) {
      000004 7C 00            [12]  733 	mov	r4,#0x00
      000006 7D 00            [12]  734 	mov	r5,#0x00
      000008                        735 00107$:
      000008 C3               [12]  736 	clr	c
      000009 EC               [12]  737 	mov	a,r4
      00000A 9E               [12]  738 	subb	a,r6
      00000B ED               [12]  739 	mov	a,r5
      00000C 9F               [12]  740 	subb	a,r7
      00000D 50 14            [24]  741 	jnc	00109$
                                    742 ;	../Firmware/src/utils.c:7: for (j = 0; j < 456; j++) {
      00000F 7A C8            [12]  743 	mov	r2,#0xc8
      000011 7B 01            [12]  744 	mov	r3,#0x01
      000013                        745 00105$:
      000013 1A               [12]  746 	dec	r2
      000014 BA FF 01         [24]  747 	cjne	r2,#0xff,00138$
      000017 1B               [12]  748 	dec	r3
      000018                        749 00138$:
      000018 EA               [12]  750 	mov	a,r2
      000019 4B               [12]  751 	orl	a,r3
      00001A 70 F7            [24]  752 	jnz	00105$
                                    753 ;	../Firmware/src/utils.c:6: for (i = 0; i < ms; i++) {
      00001C 0C               [12]  754 	inc	r4
      00001D BC 00 E8         [24]  755 	cjne	r4,#0x00,00107$
      000020 0D               [12]  756 	inc	r5
      000021 80 E5            [24]  757 	sjmp	00107$
      000023                        758 00109$:
                                    759 ;	../Firmware/src/utils.c:10: }
      000023 22               [24]  760 	ret
                                    761 ;------------------------------------------------------------
                                    762 ;Allocation info for local variables in function 'set_output_mode'
                                    763 ;------------------------------------------------------------
                                    764 ;value                     Allocated with name '_set_output_mode_PARM_2'
                                    765 ;port                      Allocated to registers r7 
                                    766 ;------------------------------------------------------------
                                    767 ;	../Firmware/src/utils.c:15: void set_output_mode(enum PORT port, UINT8 value){
                                    768 ;	-----------------------------------------
                                    769 ;	 function set_output_mode
                                    770 ;	-----------------------------------------
      000024                        771 _set_output_mode:
                                    772 ;	../Firmware/src/utils.c:16: if(port == PORT1){
      000024 E5 82            [12]  773 	mov	a,dpl
      000026 FF               [12]  774 	mov	r7,a
      000027 70 04            [24]  775 	jnz	00107$
                                    776 ;	../Firmware/src/utils.c:17: P1_MOD_OC = value;
      000029 85*00 92         [24]  777 	mov	_P1_MOD_OC,_set_output_mode_PARM_2
      00002C 22               [24]  778 	ret
      00002D                        779 00107$:
                                    780 ;	../Firmware/src/utils.c:19: else if(port == PORT2){
      00002D BF 01 01         [24]  781 	cjne	r7,#0x01,00130$
      000030 22               [24]  782 	ret
      000031                        783 00130$:
                                    784 ;	../Firmware/src/utils.c:22: else if(port == PORT3){
      000031 BF 02 03         [24]  785 	cjne	r7,#0x02,00109$
                                    786 ;	../Firmware/src/utils.c:23: P3_MOD_OC = value;
      000034 85*00 96         [24]  787 	mov	_P3_MOD_OC,_set_output_mode_PARM_2
      000037                        788 00109$:
                                    789 ;	../Firmware/src/utils.c:25: }
      000037 22               [24]  790 	ret
                                    791 ;------------------------------------------------------------
                                    792 ;Allocation info for local variables in function 'read_output_mode'
                                    793 ;------------------------------------------------------------
                                    794 ;port                      Allocated to registers r7 
                                    795 ;ret                       Allocated to registers r6 
                                    796 ;------------------------------------------------------------
                                    797 ;	../Firmware/src/utils.c:30: UINT8 read_output_mode (enum PORT port){
                                    798 ;	-----------------------------------------
                                    799 ;	 function read_output_mode
                                    800 ;	-----------------------------------------
      000038                        801 _read_output_mode:
      000038 AF 82            [24]  802 	mov	r7, dpl
                                    803 ;	../Firmware/src/utils.c:31: UINT8 ret = 0;
      00003A 7E 00            [12]  804 	mov	r6,#0x00
                                    805 ;	../Firmware/src/utils.c:32: if(port == PORT1){
      00003C EF               [12]  806 	mov	a,r7
      00003D 70 04            [24]  807 	jnz	00107$
                                    808 ;	../Firmware/src/utils.c:33: ret = P1_MOD_OC;
      00003F AE 92            [24]  809 	mov	r6,_P1_MOD_OC
      000041 80 0C            [24]  810 	sjmp	00108$
      000043                        811 00107$:
                                    812 ;	../Firmware/src/utils.c:35: else if(port == PORT2){
      000043 BF 01 04         [24]  813 	cjne	r7,#0x01,00104$
                                    814 ;	../Firmware/src/utils.c:36: ret = 0;
      000046 7E 00            [12]  815 	mov	r6,#0x00
      000048 80 05            [24]  816 	sjmp	00108$
      00004A                        817 00104$:
                                    818 ;	../Firmware/src/utils.c:38: else if(port == PORT3){
      00004A BF 02 02         [24]  819 	cjne	r7,#0x02,00108$
                                    820 ;	../Firmware/src/utils.c:39: ret = P3_MOD_OC;
      00004D AE 96            [24]  821 	mov	r6,_P3_MOD_OC
      00004F                        822 00108$:
                                    823 ;	../Firmware/src/utils.c:41: return ret;
      00004F 8E 82            [24]  824 	mov	dpl, r6
                                    825 ;	../Firmware/src/utils.c:42: }
      000051 22               [24]  826 	ret
                                    827 ;------------------------------------------------------------
                                    828 ;Allocation info for local variables in function 'set_port_dir'
                                    829 ;------------------------------------------------------------
                                    830 ;dir                       Allocated with name '_set_port_dir_PARM_2'
                                    831 ;port                      Allocated to registers r7 
                                    832 ;------------------------------------------------------------
                                    833 ;	../Firmware/src/utils.c:47: void set_port_dir(enum PORT port, UINT8 dir){
                                    834 ;	-----------------------------------------
                                    835 ;	 function set_port_dir
                                    836 ;	-----------------------------------------
      000052                        837 _set_port_dir:
                                    838 ;	../Firmware/src/utils.c:48: if(port == PORT1){
      000052 E5 82            [12]  839 	mov	a,dpl
      000054 FF               [12]  840 	mov	r7,a
      000055 70 04            [24]  841 	jnz	00107$
                                    842 ;	../Firmware/src/utils.c:49: P1_DIR_PU = dir;
      000057 85*00 93         [24]  843 	mov	_P1_DIR_PU,_set_port_dir_PARM_2
      00005A 22               [24]  844 	ret
      00005B                        845 00107$:
                                    846 ;	../Firmware/src/utils.c:51: else if(port == PORT2){
      00005B BF 01 01         [24]  847 	cjne	r7,#0x01,00130$
      00005E 22               [24]  848 	ret
      00005F                        849 00130$:
                                    850 ;	../Firmware/src/utils.c:54: else if(port == PORT3){
      00005F BF 02 03         [24]  851 	cjne	r7,#0x02,00109$
                                    852 ;	../Firmware/src/utils.c:55: P3_DIR_PU = dir;
      000062 85*00 97         [24]  853 	mov	_P3_DIR_PU,_set_port_dir_PARM_2
      000065                        854 00109$:
                                    855 ;	../Firmware/src/utils.c:57: }
      000065 22               [24]  856 	ret
                                    857 ;------------------------------------------------------------
                                    858 ;Allocation info for local variables in function 'read_port_dir'
                                    859 ;------------------------------------------------------------
                                    860 ;port                      Allocated to registers r7 
                                    861 ;ret                       Allocated to registers r6 
                                    862 ;------------------------------------------------------------
                                    863 ;	../Firmware/src/utils.c:61: UINT8 read_port_dir (enum PORT port){
                                    864 ;	-----------------------------------------
                                    865 ;	 function read_port_dir
                                    866 ;	-----------------------------------------
      000066                        867 _read_port_dir:
      000066 AF 82            [24]  868 	mov	r7, dpl
                                    869 ;	../Firmware/src/utils.c:62: UINT8 ret = 0;
      000068 7E 00            [12]  870 	mov	r6,#0x00
                                    871 ;	../Firmware/src/utils.c:63: if(port == PORT1){
      00006A EF               [12]  872 	mov	a,r7
      00006B 70 04            [24]  873 	jnz	00107$
                                    874 ;	../Firmware/src/utils.c:64: ret = P1_DIR_PU;
      00006D AE 93            [24]  875 	mov	r6,_P1_DIR_PU
      00006F 80 0C            [24]  876 	sjmp	00108$
      000071                        877 00107$:
                                    878 ;	../Firmware/src/utils.c:66: else if(port == PORT2){
      000071 BF 01 04         [24]  879 	cjne	r7,#0x01,00104$
                                    880 ;	../Firmware/src/utils.c:67: ret = 0;
      000074 7E 00            [12]  881 	mov	r6,#0x00
      000076 80 05            [24]  882 	sjmp	00108$
      000078                        883 00104$:
                                    884 ;	../Firmware/src/utils.c:69: else if(port == PORT3){
      000078 BF 02 02         [24]  885 	cjne	r7,#0x02,00108$
                                    886 ;	../Firmware/src/utils.c:70: ret = P3_DIR_PU;
      00007B AE 97            [24]  887 	mov	r6,_P3_DIR_PU
      00007D                        888 00108$:
                                    889 ;	../Firmware/src/utils.c:72: return ret;
      00007D 8E 82            [24]  890 	mov	dpl, r6
                                    891 ;	../Firmware/src/utils.c:73: }
      00007F 22               [24]  892 	ret
                                    893 ;------------------------------------------------------------
                                    894 ;Allocation info for local variables in function 'set_port_value'
                                    895 ;------------------------------------------------------------
                                    896 ;value                     Allocated with name '_set_port_value_PARM_2'
                                    897 ;port                      Allocated to registers r7 
                                    898 ;------------------------------------------------------------
                                    899 ;	../Firmware/src/utils.c:78: void set_port_value(enum PORT port, UINT8 value){
                                    900 ;	-----------------------------------------
                                    901 ;	 function set_port_value
                                    902 ;	-----------------------------------------
      000080                        903 _set_port_value:
                                    904 ;	../Firmware/src/utils.c:79: if(port == PORT1){
      000080 E5 82            [12]  905 	mov	a,dpl
      000082 FF               [12]  906 	mov	r7,a
      000083 70 04            [24]  907 	jnz	00107$
                                    908 ;	../Firmware/src/utils.c:80: P1 = value;
      000085 85*00 90         [24]  909 	mov	_P1,_set_port_value_PARM_2
      000088 22               [24]  910 	ret
      000089                        911 00107$:
                                    912 ;	../Firmware/src/utils.c:82: else if(port == PORT2){
      000089 BF 01 04         [24]  913 	cjne	r7,#0x01,00104$
                                    914 ;	../Firmware/src/utils.c:83: P2 = value;
      00008C 85*00 A0         [24]  915 	mov	_P2,_set_port_value_PARM_2
      00008F 22               [24]  916 	ret
      000090                        917 00104$:
                                    918 ;	../Firmware/src/utils.c:85: else if(port == PORT3){
      000090 BF 02 03         [24]  919 	cjne	r7,#0x02,00109$
                                    920 ;	../Firmware/src/utils.c:86: P3 = value;
      000093 85*00 B0         [24]  921 	mov	_P3,_set_port_value_PARM_2
      000096                        922 00109$:
                                    923 ;	../Firmware/src/utils.c:88: }
      000096 22               [24]  924 	ret
                                    925 ;------------------------------------------------------------
                                    926 ;Allocation info for local variables in function 'read_port_value'
                                    927 ;------------------------------------------------------------
                                    928 ;port                      Allocated to registers r7 
                                    929 ;ret                       Allocated to registers r6 
                                    930 ;------------------------------------------------------------
                                    931 ;	../Firmware/src/utils.c:93: UINT8 read_port_value (enum PORT port){
                                    932 ;	-----------------------------------------
                                    933 ;	 function read_port_value
                                    934 ;	-----------------------------------------
      000097                        935 _read_port_value:
      000097 AF 82            [24]  936 	mov	r7, dpl
                                    937 ;	../Firmware/src/utils.c:94: UINT8 ret = 0;
      000099 7E 00            [12]  938 	mov	r6,#0x00
                                    939 ;	../Firmware/src/utils.c:95: if(port == PORT1){
      00009B EF               [12]  940 	mov	a,r7
      00009C 70 04            [24]  941 	jnz	00107$
                                    942 ;	../Firmware/src/utils.c:96: ret = P1;
      00009E AE 90            [24]  943 	mov	r6,_P1
      0000A0 80 0C            [24]  944 	sjmp	00108$
      0000A2                        945 00107$:
                                    946 ;	../Firmware/src/utils.c:98: else if(port == PORT2){
      0000A2 BF 01 04         [24]  947 	cjne	r7,#0x01,00104$
                                    948 ;	../Firmware/src/utils.c:99: ret = P2;
      0000A5 AE A0            [24]  949 	mov	r6,_P2
      0000A7 80 05            [24]  950 	sjmp	00108$
      0000A9                        951 00104$:
                                    952 ;	../Firmware/src/utils.c:101: else if(port == PORT3){
      0000A9 BF 02 02         [24]  953 	cjne	r7,#0x02,00108$
                                    954 ;	../Firmware/src/utils.c:102: ret = P3;
      0000AC AE B0            [24]  955 	mov	r6,_P3
      0000AE                        956 00108$:
                                    957 ;	../Firmware/src/utils.c:104: return ret;
      0000AE 8E 82            [24]  958 	mov	dpl, r6
                                    959 ;	../Firmware/src/utils.c:105: }
      0000B0 22               [24]  960 	ret
                                    961 ;------------------------------------------------------------
                                    962 ;Allocation info for local variables in function 'configure_port'
                                    963 ;------------------------------------------------------------
                                    964 ;mode                      Allocated with name '_configure_port_PARM_2'
                                    965 ;port                      Allocated to registers r7 
                                    966 ;------------------------------------------------------------
                                    967 ;	../Firmware/src/utils.c:109: void configure_port(enum PORT port, enum PORT_MODE mode){
                                    968 ;	-----------------------------------------
                                    969 ;	 function configure_port
                                    970 ;	-----------------------------------------
      0000B1                        971 _configure_port:
      0000B1 AF 82            [24]  972 	mov	r7, dpl
                                    973 ;	../Firmware/src/utils.c:110: if(mode == HIGH_IMPEDANCE){
      0000B3 E5*00            [12]  974 	mov	a,_configure_port_PARM_2
                                    975 ;	../Firmware/src/utils.c:111: set_output_mode(port,0x00);
      0000B5 70 13            [24]  976 	jnz	00110$
      0000B7 F5*00            [12]  977 	mov	_set_output_mode_PARM_2,a
      0000B9 8F 82            [24]  978 	mov	dpl, r7
      0000BB C0 07            [24]  979 	push	ar7
      0000BD 12r00r24         [24]  980 	lcall	_set_output_mode
      0000C0 D0 07            [24]  981 	pop	ar7
                                    982 ;	../Firmware/src/utils.c:112: set_port_dir(port, 0x00);
      0000C2 75*00 00         [24]  983 	mov	_set_port_dir_PARM_2,#0x00
      0000C5 8F 82            [24]  984 	mov	dpl, r7
      0000C7 02r00r52         [24]  985 	ljmp	_set_port_dir
      0000CA                        986 00110$:
                                    987 ;	../Firmware/src/utils.c:114: else if(mode == PP_OUT){
      0000CA 74 01            [12]  988 	mov	a,#0x01
      0000CC B5*00 14         [24]  989 	cjne	a,_configure_port_PARM_2,00107$
                                    990 ;	../Firmware/src/utils.c:115: set_output_mode(port,0x00);
      0000CF 75*00 00         [24]  991 	mov	_set_output_mode_PARM_2,#0x00
      0000D2 8F 82            [24]  992 	mov	dpl, r7
      0000D4 C0 07            [24]  993 	push	ar7
      0000D6 12r00r24         [24]  994 	lcall	_set_output_mode
      0000D9 D0 07            [24]  995 	pop	ar7
                                    996 ;	../Firmware/src/utils.c:116: set_port_dir(port, 0xFF);
      0000DB 75*00 FF         [24]  997 	mov	_set_port_dir_PARM_2,#0xff
      0000DE 8F 82            [24]  998 	mov	dpl, r7
      0000E0 02r00r52         [24]  999 	ljmp	_set_port_dir
      0000E3                       1000 00107$:
                                   1001 ;	../Firmware/src/utils.c:118: else if(mode == OD_OUT){
      0000E3 74 02            [12] 1002 	mov	a,#0x02
      0000E5 B5*00 14         [24] 1003 	cjne	a,_configure_port_PARM_2,00104$
                                   1004 ;	../Firmware/src/utils.c:119: set_output_mode(port,0xFF);
      0000E8 75*00 FF         [24] 1005 	mov	_set_output_mode_PARM_2,#0xff
      0000EB 8F 82            [24] 1006 	mov	dpl, r7
      0000ED C0 07            [24] 1007 	push	ar7
      0000EF 12r00r24         [24] 1008 	lcall	_set_output_mode
      0000F2 D0 07            [24] 1009 	pop	ar7
                                   1010 ;	../Firmware/src/utils.c:120: set_port_dir(port, 0x00);
      0000F4 75*00 00         [24] 1011 	mov	_set_port_dir_PARM_2,#0x00
      0000F7 8F 82            [24] 1012 	mov	dpl, r7
      0000F9 02r00r52         [24] 1013 	ljmp	_set_port_dir
      0000FC                       1014 00104$:
                                   1015 ;	../Firmware/src/utils.c:122: else if(mode == QUASI_BI){
      0000FC 74 03            [12] 1016 	mov	a,#0x03
      0000FE B5*00 14         [24] 1017 	cjne	a,_configure_port_PARM_2,00112$
                                   1018 ;	../Firmware/src/utils.c:123: set_output_mode(port,0xFF);
      000101 75*00 FF         [24] 1019 	mov	_set_output_mode_PARM_2,#0xff
      000104 8F 82            [24] 1020 	mov	dpl, r7
      000106 C0 07            [24] 1021 	push	ar7
      000108 12r00r24         [24] 1022 	lcall	_set_output_mode
      00010B D0 07            [24] 1023 	pop	ar7
                                   1024 ;	../Firmware/src/utils.c:124: set_port_dir(port, 0xFF);
      00010D 75*00 FF         [24] 1025 	mov	_set_port_dir_PARM_2,#0xff
      000110 8F 82            [24] 1026 	mov	dpl, r7
                                   1027 ;	../Firmware/src/utils.c:127: }
      000112 02r00r52         [24] 1028 	ljmp	_set_port_dir
      000115                       1029 00112$:
      000115 22               [24] 1030 	ret
                                   1031 ;------------------------------------------------------------
                                   1032 ;Allocation info for local variables in function 'start_adc'
                                   1033 ;------------------------------------------------------------
                                   1034 ;	../Firmware/src/utils.c:130: void start_adc(void){
                                   1035 ;	-----------------------------------------
                                   1036 ;	 function start_adc
                                   1037 ;	-----------------------------------------
      000116                       1038 _start_adc:
                                   1039 ;	../Firmware/src/utils.c:131: ADC_CTRL |= 1 << 4;
      000116 43 80 10         [24] 1040 	orl	_ADC_CTRL,#0x10
                                   1041 ;	../Firmware/src/utils.c:132: }
      000119 22               [24] 1042 	ret
                                   1043 ;------------------------------------------------------------
                                   1044 ;Allocation info for local variables in function 'is_adc_done'
                                   1045 ;------------------------------------------------------------
                                   1046 ;data                      Allocated to registers 
                                   1047 ;------------------------------------------------------------
                                   1048 ;	../Firmware/src/utils.c:136: UINT8 is_adc_done(void){
                                   1049 ;	-----------------------------------------
                                   1050 ;	 function is_adc_done
                                   1051 ;	-----------------------------------------
      00011A                       1052 _is_adc_done:
                                   1053 ;	../Firmware/src/utils.c:137: UINT8 data = ADC_CTRL >> 4;
      00011A E5 80            [12] 1054 	mov	a,_ADC_CTRL
      00011C C4               [12] 1055 	swap	a
      00011D 54 0F            [12] 1056 	anl	a,#0x0f
      00011F FF               [12] 1057 	mov	r7,a
                                   1058 ;	../Firmware/src/utils.c:138: data &= 0x01;
      000120 74 01            [12] 1059 	mov	a,#0x01
      000122 5F               [12] 1060 	anl	a,r7
      000123 F5 82            [12] 1061 	mov	dpl,a
                                   1062 ;	../Firmware/src/utils.c:139: return data;
                                   1063 ;	../Firmware/src/utils.c:140: }
      000125 22               [24] 1064 	ret
                                   1065 ;------------------------------------------------------------
                                   1066 ;Allocation info for local variables in function 'ADC_Enable'
                                   1067 ;------------------------------------------------------------
                                   1068 ;state                     Allocated to registers r7 
                                   1069 ;_data                     Allocated to registers 
                                   1070 ;------------------------------------------------------------
                                   1071 ;	../Firmware/src/utils.c:144: void ADC_Enable(UINT8 state){
                                   1072 ;	-----------------------------------------
                                   1073 ;	 function ADC_Enable
                                   1074 ;	-----------------------------------------
      000126                       1075 _ADC_Enable:
                                   1076 ;	../Firmware/src/utils.c:145: if(state > 0)
      000126 E5 82            [12] 1077 	mov	a,dpl
      000128 60 04            [24] 1078 	jz	00102$
                                   1079 ;	../Firmware/src/utils.c:146: ADC_CFG |= 1 << 3;
      00012A 43 9A 08         [24] 1080 	orl	_ADC_CFG,#0x08
      00012D 22               [24] 1081 	ret
      00012E                       1082 00102$:
                                   1083 ;	../Firmware/src/utils.c:149: ADC_CFG &= _data;
      00012E 53 9A F7         [24] 1084 	anl	_ADC_CFG,#0xf7
                                   1085 ;	../Firmware/src/utils.c:151: }
      000131 22               [24] 1086 	ret
                                   1087 ;------------------------------------------------------------
                                   1088 ;Allocation info for local variables in function 'set_ADC_speed'
                                   1089 ;------------------------------------------------------------
                                   1090 ;speed                     Allocated to registers r7 
                                   1091 ;_data                     Allocated to registers 
                                   1092 ;------------------------------------------------------------
                                   1093 ;	../Firmware/src/utils.c:154: void set_ADC_speed(UINT8 speed){
                                   1094 ;	-----------------------------------------
                                   1095 ;	 function set_ADC_speed
                                   1096 ;	-----------------------------------------
      000132                       1097 _set_ADC_speed:
                                   1098 ;	../Firmware/src/utils.c:155: if(speed > 0)
      000132 E5 82            [12] 1099 	mov	a,dpl
      000134 60 04            [24] 1100 	jz	00102$
                                   1101 ;	../Firmware/src/utils.c:156: ADC_CFG |= 1;
      000136 43 9A 01         [24] 1102 	orl	_ADC_CFG,#0x01
      000139 22               [24] 1103 	ret
      00013A                       1104 00102$:
                                   1105 ;	../Firmware/src/utils.c:159: ADC_CFG &= _data;
      00013A 53 9A FE         [24] 1106 	anl	_ADC_CFG,#0xfe
                                   1107 ;	../Firmware/src/utils.c:161: }
      00013D 22               [24] 1108 	ret
                                   1109 ;------------------------------------------------------------
                                   1110 ;Allocation info for local variables in function 'set_ADC_channel'
                                   1111 ;------------------------------------------------------------
                                   1112 ;channel                   Allocated to registers r7 
                                   1113 ;------------------------------------------------------------
                                   1114 ;	../Firmware/src/utils.c:164: void set_ADC_channel(UINT8 channel){
                                   1115 ;	-----------------------------------------
                                   1116 ;	 function set_ADC_channel
                                   1117 ;	-----------------------------------------
      00013E                       1118 _set_ADC_channel:
      00013E AF 82            [24] 1119 	mov	r7, dpl
                                   1120 ;	../Firmware/src/utils.c:165: ADC_CTRL &= 0xFC;
      000140 53 80 FC         [24] 1121 	anl	_ADC_CTRL,#0xfc
                                   1122 ;	../Firmware/src/utils.c:166: ADC_CTRL |= channel & 0x03;
      000143 53 07 03         [24] 1123 	anl	ar7,#0x03
      000146 EF               [12] 1124 	mov	a,r7
      000147 42 80            [12] 1125 	orl	_ADC_CTRL,a
                                   1126 ;	../Firmware/src/utils.c:167: }
      000149 22               [24] 1127 	ret
                                   1128 ;------------------------------------------------------------
                                   1129 ;Allocation info for local variables in function 'analog_read'
                                   1130 ;------------------------------------------------------------
                                   1131 ;channel                   Allocated to registers 
                                   1132 ;------------------------------------------------------------
                                   1133 ;	../Firmware/src/utils.c:171: UINT8 analog_read(int channel){
                                   1134 ;	-----------------------------------------
                                   1135 ;	 function analog_read
                                   1136 ;	-----------------------------------------
      00014A                       1137 _analog_read:
                                   1138 ;	../Firmware/src/utils.c:172: ADC_Enable(1);
      00014A 75 82 01         [24] 1139 	mov	dpl, #0x01
      00014D 12r01r26         [24] 1140 	lcall	_ADC_Enable
                                   1141 ;	../Firmware/src/utils.c:173: set_ADC_speed(1);
      000150 75 82 01         [24] 1142 	mov	dpl, #0x01
      000153 12r01r32         [24] 1143 	lcall	_set_ADC_speed
                                   1144 ;	../Firmware/src/utils.c:174: set_ADC_channel(3);
      000156 75 82 03         [24] 1145 	mov	dpl, #0x03
      000159 12r01r3E         [24] 1146 	lcall	_set_ADC_channel
                                   1147 ;	../Firmware/src/utils.c:175: start_adc();
      00015C 12r01r16         [24] 1148 	lcall	_start_adc
                                   1149 ;	../Firmware/src/utils.c:176: delay(500);
      00015F 90 01 F4         [24] 1150 	mov	dptr,#0x01f4
      000162 12r00r00         [24] 1151 	lcall	_delay
                                   1152 ;	../Firmware/src/utils.c:178: return ADC_DATA;
      000165 85 9F 82         [24] 1153 	mov	dpl, _ADC_DATA
                                   1154 ;	../Firmware/src/utils.c:179: }
      000168 22               [24] 1155 	ret
                                   1156 ;------------------------------------------------------------
                                   1157 ;Allocation info for local variables in function 'bit_bang_uart_begin'
                                   1158 ;------------------------------------------------------------
                                   1159 ;	../Firmware/src/utils.c:183: void bit_bang_uart_begin(void){
                                   1160 ;	-----------------------------------------
                                   1161 ;	 function bit_bang_uart_begin
                                   1162 ;	-----------------------------------------
      000169                       1163 _bit_bang_uart_begin:
                                   1164 ;	../Firmware/src/utils.c:184: configure_port(PORT3, PP_OUT);
      000169 75*00 01         [24] 1165 	mov	_configure_port_PARM_2,#0x01
      00016C 75 82 02         [24] 1166 	mov	dpl, #0x02
      00016F 12r00rB1         [24] 1167 	lcall	_configure_port
                                   1168 ;	../Firmware/src/utils.c:185: set_port_value(PORT3, 0xFF);
      000172 75*00 FF         [24] 1169 	mov	_set_port_value_PARM_2,#0xff
      000175 75 82 02         [24] 1170 	mov	dpl, #0x02
      000178 12r00r80         [24] 1171 	lcall	_set_port_value
                                   1172 ;	../Firmware/src/utils.c:186: delay(500);
      00017B 90 01 F4         [24] 1173 	mov	dptr,#0x01f4
                                   1174 ;	../Firmware/src/utils.c:187: }
      00017E 02r00r00         [24] 1175 	ljmp	_delay
                                   1176 ;------------------------------------------------------------
                                   1177 ;Allocation info for local variables in function 'bit_bang_uart_tx'
                                   1178 ;------------------------------------------------------------
                                   1179 ;data                      Allocated to registers r7 
                                   1180 ;i                         Allocated to registers r6 
                                   1181 ;------------------------------------------------------------
                                   1182 ;	../Firmware/src/utils.c:191: void bit_bang_uart_tx(UINT8 data){
                                   1183 ;	-----------------------------------------
                                   1184 ;	 function bit_bang_uart_tx
                                   1185 ;	-----------------------------------------
      000181                       1186 _bit_bang_uart_tx:
      000181 AF 82            [24] 1187 	mov	r7, dpl
                                   1188 ;	../Firmware/src/utils.c:192: PIN_FUNC = 0;
      000183 75 C6 00         [24] 1189 	mov	_PIN_FUNC,#0x00
                                   1190 ;	../Firmware/src/utils.c:193: set_port_value(PORT3, 0x00);
      000186 75*00 00         [24] 1191 	mov	_set_port_value_PARM_2,#0x00
      000189 75 82 02         [24] 1192 	mov	dpl, #0x02
      00018C C0 07            [24] 1193 	push	ar7
      00018E 12r00r80         [24] 1194 	lcall	_set_port_value
                                   1195 ;	../Firmware/src/utils.c:194: delay(1);
      000191 90 00 01         [24] 1196 	mov	dptr,#0x0001
      000194 12r00r00         [24] 1197 	lcall	_delay
      000197 D0 07            [24] 1198 	pop	ar7
                                   1199 ;	../Firmware/src/utils.c:195: for (int i = 0; i < 8; i++) {
      000199 7E 00            [12] 1200 	mov	r6,#0x00
      00019B                       1201 00106$:
      00019B BE 08 00         [24] 1202 	cjne	r6,#0x08,00129$
      00019E                       1203 00129$:
      00019E 50 56            [24] 1204 	jnc	00104$
                                   1205 ;	../Firmware/src/utils.c:196: if (data & (1 << i)) {
      0001A0 8E F0            [24] 1206 	mov	b,r6
      0001A2 05 F0            [12] 1207 	inc	b
      0001A4 7C 01            [12] 1208 	mov	r4,#0x01
      0001A6 7D 00            [12] 1209 	mov	r5,#0x00
      0001A8 80 06            [24] 1210 	sjmp	00132$
      0001AA                       1211 00131$:
      0001AA EC               [12] 1212 	mov	a,r4
      0001AB 2C               [12] 1213 	add	a,r4
      0001AC FC               [12] 1214 	mov	r4,a
      0001AD ED               [12] 1215 	mov	a,r5
      0001AE 33               [12] 1216 	rlc	a
      0001AF FD               [12] 1217 	mov	r5,a
      0001B0                       1218 00132$:
      0001B0 D5 F0 F7         [24] 1219 	djnz	b,00131$
      0001B3 8F 02            [24] 1220 	mov	ar2,r7
      0001B5 7B 00            [12] 1221 	mov	r3,#0x00
      0001B7 EA               [12] 1222 	mov	a,r2
      0001B8 52 04            [12] 1223 	anl	ar4,a
      0001BA EB               [12] 1224 	mov	a,r3
      0001BB 52 05            [12] 1225 	anl	ar5,a
      0001BD EC               [12] 1226 	mov	a,r4
      0001BE 4D               [12] 1227 	orl	a,r5
      0001BF 60 13            [24] 1228 	jz	00102$
                                   1229 ;	../Firmware/src/utils.c:197: set_port_value(PORT3, 0xFF);
      0001C1 75*00 FF         [24] 1230 	mov	_set_port_value_PARM_2,#0xff
      0001C4 75 82 02         [24] 1231 	mov	dpl, #0x02
      0001C7 C0 07            [24] 1232 	push	ar7
      0001C9 C0 06            [24] 1233 	push	ar6
      0001CB 12r00r80         [24] 1234 	lcall	_set_port_value
      0001CE D0 06            [24] 1235 	pop	ar6
      0001D0 D0 07            [24] 1236 	pop	ar7
      0001D2 80 11            [24] 1237 	sjmp	00103$
      0001D4                       1238 00102$:
                                   1239 ;	../Firmware/src/utils.c:199: set_port_value(PORT3, 0x00);
      0001D4 75*00 00         [24] 1240 	mov	_set_port_value_PARM_2,#0x00
      0001D7 75 82 02         [24] 1241 	mov	dpl, #0x02
      0001DA C0 07            [24] 1242 	push	ar7
      0001DC C0 06            [24] 1243 	push	ar6
      0001DE 12r00r80         [24] 1244 	lcall	_set_port_value
      0001E1 D0 06            [24] 1245 	pop	ar6
      0001E3 D0 07            [24] 1246 	pop	ar7
      0001E5                       1247 00103$:
                                   1248 ;	../Firmware/src/utils.c:201: delay(1);
      0001E5 90 00 01         [24] 1249 	mov	dptr,#0x0001
      0001E8 C0 07            [24] 1250 	push	ar7
      0001EA C0 06            [24] 1251 	push	ar6
      0001EC 12r00r00         [24] 1252 	lcall	_delay
      0001EF D0 06            [24] 1253 	pop	ar6
      0001F1 D0 07            [24] 1254 	pop	ar7
                                   1255 ;	../Firmware/src/utils.c:195: for (int i = 0; i < 8; i++) {
      0001F3 0E               [12] 1256 	inc	r6
      0001F4 80 A5            [24] 1257 	sjmp	00106$
      0001F6                       1258 00104$:
                                   1259 ;	../Firmware/src/utils.c:203: set_port_value(PORT3, 0xFF); 
      0001F6 75*00 FF         [24] 1260 	mov	_set_port_value_PARM_2,#0xff
      0001F9 75 82 02         [24] 1261 	mov	dpl, #0x02
      0001FC 12r00r80         [24] 1262 	lcall	_set_port_value
                                   1263 ;	../Firmware/src/utils.c:204: delay(1);
      0001FF 90 00 01         [24] 1264 	mov	dptr,#0x0001
                                   1265 ;	../Firmware/src/utils.c:205: }
      000202 02r00r00         [24] 1266 	ljmp	_delay
                                   1267 ;------------------------------------------------------------
                                   1268 ;Allocation info for local variables in function 'print'
                                   1269 ;------------------------------------------------------------
                                   1270 ;str                       Allocated to registers r5 r6 r7 
                                   1271 ;index                     Allocated to registers r3 r4 
                                   1272 ;------------------------------------------------------------
                                   1273 ;	../Firmware/src/utils.c:209: void print(char * str){
                                   1274 ;	-----------------------------------------
                                   1275 ;	 function print
                                   1276 ;	-----------------------------------------
      000205                       1277 _print:
      000205 AD 82            [24] 1278 	mov	r5, dpl
      000207 AE 83            [24] 1279 	mov	r6, dph
      000209 AF F0            [24] 1280 	mov	r7, b
                                   1281 ;	../Firmware/src/utils.c:211: while(str[index] != '\0'){
      00020B 7B 00            [12] 1282 	mov	r3,#0x00
      00020D 7C 00            [12] 1283 	mov	r4,#0x00
      00020F                       1284 00101$:
      00020F EB               [12] 1285 	mov	a,r3
      000210 2D               [12] 1286 	add	a, r5
      000211 F8               [12] 1287 	mov	r0,a
      000212 EC               [12] 1288 	mov	a,r4
      000213 3E               [12] 1289 	addc	a, r6
      000214 F9               [12] 1290 	mov	r1,a
      000215 8F 02            [24] 1291 	mov	ar2,r7
      000217 88 82            [24] 1292 	mov	dpl,r0
      000219 89 83            [24] 1293 	mov	dph,r1
      00021B 8A F0            [24] 1294 	mov	b,r2
      00021D 12r00r00         [24] 1295 	lcall	__gptrget
      000220 60 31            [24] 1296 	jz	00104$
                                   1297 ;	../Firmware/src/utils.c:212: bit_bang_uart_tx(str[index++]);
      000222 EB               [12] 1298 	mov	a,r3
      000223 2D               [12] 1299 	add	a, r5
      000224 F8               [12] 1300 	mov	r0,a
      000225 EC               [12] 1301 	mov	a,r4
      000226 3E               [12] 1302 	addc	a, r6
      000227 F9               [12] 1303 	mov	r1,a
      000228 8F 02            [24] 1304 	mov	ar2,r7
      00022A 0B               [12] 1305 	inc	r3
      00022B BB 00 01         [24] 1306 	cjne	r3,#0x00,00120$
      00022E 0C               [12] 1307 	inc	r4
      00022F                       1308 00120$:
      00022F 88 82            [24] 1309 	mov	dpl,r0
      000231 89 83            [24] 1310 	mov	dph,r1
      000233 8A F0            [24] 1311 	mov	b,r2
      000235 12r00r00         [24] 1312 	lcall	__gptrget
      000238 F5 82            [12] 1313 	mov	dpl,a
      00023A C0 07            [24] 1314 	push	ar7
      00023C C0 06            [24] 1315 	push	ar6
      00023E C0 05            [24] 1316 	push	ar5
      000240 C0 04            [24] 1317 	push	ar4
      000242 C0 03            [24] 1318 	push	ar3
      000244 12r01r81         [24] 1319 	lcall	_bit_bang_uart_tx
      000247 D0 03            [24] 1320 	pop	ar3
      000249 D0 04            [24] 1321 	pop	ar4
      00024B D0 05            [24] 1322 	pop	ar5
      00024D D0 06            [24] 1323 	pop	ar6
      00024F D0 07            [24] 1324 	pop	ar7
      000251 80 BC            [24] 1325 	sjmp	00101$
      000253                       1326 00104$:
                                   1327 ;	../Firmware/src/utils.c:214: }
      000253 22               [24] 1328 	ret
                                   1329 ;------------------------------------------------------------
                                   1330 ;Allocation info for local variables in function 'println'
                                   1331 ;------------------------------------------------------------
                                   1332 ;str                       Allocated to registers r5 r6 r7 
                                   1333 ;------------------------------------------------------------
                                   1334 ;	../Firmware/src/utils.c:218: void println(char * str){
                                   1335 ;	-----------------------------------------
                                   1336 ;	 function println
                                   1337 ;	-----------------------------------------
      000254                       1338 _println:
                                   1339 ;	../Firmware/src/utils.c:219: print(str);
      000254 12r02r05         [24] 1340 	lcall	_print
                                   1341 ;	../Firmware/src/utils.c:220: bit_bang_uart_tx('\r');
      000257 75 82 0D         [24] 1342 	mov	dpl, #0x0d
      00025A 12r01r81         [24] 1343 	lcall	_bit_bang_uart_tx
                                   1344 ;	../Firmware/src/utils.c:221: bit_bang_uart_tx('\n');
      00025D 75 82 0A         [24] 1345 	mov	dpl, #0x0a
                                   1346 ;	../Firmware/src/utils.c:222: }
      000260 02r01r81         [24] 1347 	ljmp	_bit_bang_uart_tx
                                   1348 ;------------------------------------------------------------
                                   1349 ;Allocation info for local variables in function 'get_system_freq'
                                   1350 ;------------------------------------------------------------
                                   1351 ;	../Firmware/src/utils.c:227: UINT8 get_system_freq(void){
                                   1352 ;	-----------------------------------------
                                   1353 ;	 function get_system_freq
                                   1354 ;	-----------------------------------------
      000263                       1355 _get_system_freq:
                                   1356 ;	../Firmware/src/utils.c:228: return CLOCK_CFG & 0x07;
      000263 E5 B9            [12] 1357 	mov	a,_CLOCK_CFG
      000265 54 07            [12] 1358 	anl	a,#0x07
      000267 F5 82            [12] 1359 	mov	dpl,a
                                   1360 ;	../Firmware/src/utils.c:229: }
      000269 22               [24] 1361 	ret
                                   1362 ;------------------------------------------------------------
                                   1363 ;Allocation info for local variables in function 'set_timer_mode'
                                   1364 ;------------------------------------------------------------
                                   1365 ;_mode                     Allocated with name '_set_timer_mode_PARM_2'
                                   1366 ;_t                        Allocated to registers r7 
                                   1367 ;------------------------------------------------------------
                                   1368 ;	../Firmware/src/utils.c:234: void set_timer_mode(enum TIMER _t, enum TIMER_MODE _mode){
                                   1369 ;	-----------------------------------------
                                   1370 ;	 function set_timer_mode
                                   1371 ;	-----------------------------------------
      00026A                       1372 _set_timer_mode:
                                   1373 ;	../Firmware/src/utils.c:235: if(_t == TIMER0){
      00026A E5 82            [12] 1374 	mov	a,dpl
      00026C FF               [12] 1375 	mov	r7,a
      00026D 70 2B            [24] 1376 	jnz	00119$
                                   1377 ;	../Firmware/src/utils.c:236: TMOD &= 0xFC;
      00026F 53 89 FC         [24] 1378 	anl	_TMOD,#0xfc
                                   1379 ;	../Firmware/src/utils.c:237: switch (_mode){
      000272 E5*00            [12] 1380 	mov	a,_set_timer_mode_PARM_2
      000274 24 FC            [12] 1381 	add	a,#0xff - 0x03
      000276 40 56            [24] 1382 	jc	00121$
      000278 E5*00            [12] 1383 	mov	a,_set_timer_mode_PARM_2
      00027A 75 F0 03         [24] 1384 	mov	b,#0x03
      00027D A4               [48] 1385 	mul	ab
      00027E 90r02r82         [24] 1386 	mov	dptr,#00157$
      000281 73               [24] 1387 	jmp	@a+dptr
      000282                       1388 00157$:
      000282 02r02rCE         [24] 1389 	ljmp	00121$
      000285 02r02r8E         [24] 1390 	ljmp	00102$
      000288 02r02r92         [24] 1391 	ljmp	00103$
      00028B 02r02r96         [24] 1392 	ljmp	00104$
                                   1393 ;	../Firmware/src/utils.c:239: case TMR_MODE_1:    TMOD |= 0x01;
      00028E                       1394 00102$:
      00028E 43 89 01         [24] 1395 	orl	_TMOD,#0x01
                                   1396 ;	../Firmware/src/utils.c:240: break;
                                   1397 ;	../Firmware/src/utils.c:241: case TMR_MODE_2:    TMOD |= 0x02;
      000291 22               [24] 1398 	ret
      000292                       1399 00103$:
      000292 43 89 02         [24] 1400 	orl	_TMOD,#0x02
                                   1401 ;	../Firmware/src/utils.c:242: break;
                                   1402 ;	../Firmware/src/utils.c:243: case TMR_MODE_3:    TMOD |= 0x03;
      000295 22               [24] 1403 	ret
      000296                       1404 00104$:
      000296 43 89 03         [24] 1405 	orl	_TMOD,#0x03
                                   1406 ;	../Firmware/src/utils.c:245: }
      000299 22               [24] 1407 	ret
      00029A                       1408 00119$:
                                   1409 ;	../Firmware/src/utils.c:247: else if(_t == TIMER1){
      00029A BF 01 2B         [24] 1410 	cjne	r7,#0x01,00116$
                                   1411 ;	../Firmware/src/utils.c:248: TMOD &= 0xCF;
      00029D 53 89 CF         [24] 1412 	anl	_TMOD,#0xcf
                                   1413 ;	../Firmware/src/utils.c:249: switch (_mode){
      0002A0 E5*00            [12] 1414 	mov	a,_set_timer_mode_PARM_2
      0002A2 24 FC            [12] 1415 	add	a,#0xff - 0x03
      0002A4 40 28            [24] 1416 	jc	00121$
      0002A6 E5*00            [12] 1417 	mov	a,_set_timer_mode_PARM_2
      0002A8 75 F0 03         [24] 1418 	mov	b,#0x03
      0002AB A4               [48] 1419 	mul	ab
      0002AC 90r02rB0         [24] 1420 	mov	dptr,#00161$
      0002AF 73               [24] 1421 	jmp	@a+dptr
      0002B0                       1422 00161$:
      0002B0 02r02rCE         [24] 1423 	ljmp	00121$
      0002B3 02r02rBC         [24] 1424 	ljmp	00107$
      0002B6 02r02rC0         [24] 1425 	ljmp	00108$
      0002B9 02r02rC4         [24] 1426 	ljmp	00109$
                                   1427 ;	../Firmware/src/utils.c:251: case TMR_MODE_1:    TMOD |= 0x10;
      0002BC                       1428 00107$:
      0002BC 43 89 10         [24] 1429 	orl	_TMOD,#0x10
                                   1430 ;	../Firmware/src/utils.c:252: break;
                                   1431 ;	../Firmware/src/utils.c:253: case TMR_MODE_2:    TMOD |= 0x20;
      0002BF 22               [24] 1432 	ret
      0002C0                       1433 00108$:
      0002C0 43 89 20         [24] 1434 	orl	_TMOD,#0x20
                                   1435 ;	../Firmware/src/utils.c:254: break;
                                   1436 ;	../Firmware/src/utils.c:255: case TMR_MODE_3:    TMOD |= 0x30;
      0002C3 22               [24] 1437 	ret
      0002C4                       1438 00109$:
      0002C4 43 89 30         [24] 1439 	orl	_TMOD,#0x30
                                   1440 ;	../Firmware/src/utils.c:257: }
      0002C7 22               [24] 1441 	ret
      0002C8                       1442 00116$:
                                   1443 ;	../Firmware/src/utils.c:259: else if(_t == TIMER2){
      0002C8 BF 02 03         [24] 1444 	cjne	r7,#0x02,00121$
                                   1445 ;	../Firmware/src/utils.c:260: T2CON &= 0xCD;
      0002CB 53 C8 CD         [24] 1446 	anl	_T2CON,#0xcd
                                   1447 ;	../Firmware/src/utils.c:264: }
      0002CE                       1448 00121$:
                                   1449 ;	../Firmware/src/utils.c:267: }
      0002CE 22               [24] 1450 	ret
                                   1451 ;------------------------------------------------------------
                                   1452 ;Allocation info for local variables in function 'select_timer_clk'
                                   1453 ;------------------------------------------------------------
                                   1454 ;_clk                      Allocated with name '_select_timer_clk_PARM_2'
                                   1455 ;_t                        Allocated to registers r7 
                                   1456 ;------------------------------------------------------------
                                   1457 ;	../Firmware/src/utils.c:271: void select_timer_clk(enum TIMER _t, enum TIMER_CLK _clk){
                                   1458 ;	-----------------------------------------
                                   1459 ;	 function select_timer_clk
                                   1460 ;	-----------------------------------------
      0002CF                       1461 _select_timer_clk:
                                   1462 ;	../Firmware/src/utils.c:272: if(_t == TIMER0){
      0002CF E5 82            [12] 1463 	mov	a,dpl
      0002D1 FF               [12] 1464 	mov	r7,a
      0002D2 70 14            [24] 1465 	jnz	00122$
                                   1466 ;	../Firmware/src/utils.c:273: T2MOD &= 0x6F;
      0002D4 53 C9 6F         [24] 1467 	anl	_T2MOD,#0x6f
                                   1468 ;	../Firmware/src/utils.c:275: if(_clk == DIV_4) T2MOD |= 0x10;
      0002D7 74 01            [12] 1469 	mov	a,#0x01
      0002D9 B5*00 03         [24] 1470 	cjne	a,_select_timer_clk_PARM_2,00102$
      0002DC 43 C9 10         [24] 1471 	orl	_T2MOD,#0x10
      0002DF                       1472 00102$:
                                   1473 ;	../Firmware/src/utils.c:276: if (_clk == F_SYS) T2MOD |= 0x90;
      0002DF 74 03            [12] 1474 	mov	a,#0x03
      0002E1 B5*00 3F         [24] 1475 	cjne	a,_select_timer_clk_PARM_2,00124$
      0002E4 43 C9 90         [24] 1476 	orl	_T2MOD,#0x90
      0002E7 22               [24] 1477 	ret
      0002E8                       1478 00122$:
                                   1479 ;	../Firmware/src/utils.c:278: else if(_t == TIMER1){
      0002E8 BF 01 14         [24] 1480 	cjne	r7,#0x01,00119$
                                   1481 ;	../Firmware/src/utils.c:279: T2MOD &= 0x5F;
      0002EB 53 C9 5F         [24] 1482 	anl	_T2MOD,#0x5f
                                   1483 ;	../Firmware/src/utils.c:281: if(_clk == DIV_4) T2MOD |= 0x20;
      0002EE 74 01            [12] 1484 	mov	a,#0x01
      0002F0 B5*00 03         [24] 1485 	cjne	a,_select_timer_clk_PARM_2,00106$
      0002F3 43 C9 20         [24] 1486 	orl	_T2MOD,#0x20
      0002F6                       1487 00106$:
                                   1488 ;	../Firmware/src/utils.c:282: if(_clk == F_SYS) T2MOD |= 0xA0;
      0002F6 74 03            [12] 1489 	mov	a,#0x03
      0002F8 B5*00 28         [24] 1490 	cjne	a,_select_timer_clk_PARM_2,00124$
      0002FB 43 C9 A0         [24] 1491 	orl	_T2MOD,#0xa0
      0002FE 22               [24] 1492 	ret
      0002FF                       1493 00119$:
                                   1494 ;	../Firmware/src/utils.c:284: else if(_t == TIMER2){
      0002FF BF 02 21         [24] 1495 	cjne	r7,#0x02,00124$
                                   1496 ;	../Firmware/src/utils.c:285: T2MOD &= 0x3F;
      000302 53 C9 3F         [24] 1497 	anl	_T2MOD,#0x3f
                                   1498 ;	../Firmware/src/utils.c:286: if(_clk == DIV_12) T2MOD |= 0x10;
      000305 E5*00            [12] 1499 	mov	a,_select_timer_clk_PARM_2
      000307 70 03            [24] 1500 	jnz	00110$
      000309 43 C9 10         [24] 1501 	orl	_T2MOD,#0x10
      00030C                       1502 00110$:
                                   1503 ;	../Firmware/src/utils.c:287: if(_clk == DIV_4 || _clk == DIV_2) T2MOD |= 0x40;
      00030C 74 01            [12] 1504 	mov	a,#0x01
      00030E B5*00 02         [24] 1505 	cjne	a,_select_timer_clk_PARM_2,00200$
      000311 80 05            [24] 1506 	sjmp	00111$
      000313                       1507 00200$:
      000313 74 02            [12] 1508 	mov	a,#0x02
      000315 B5*00 03         [24] 1509 	cjne	a,_select_timer_clk_PARM_2,00112$
      000318                       1510 00111$:
      000318 43 C9 40         [24] 1511 	orl	_T2MOD,#0x40
      00031B                       1512 00112$:
                                   1513 ;	../Firmware/src/utils.c:288: if(_clk == F_SYS) T2MOD |= 0xC0;
      00031B 74 03            [12] 1514 	mov	a,#0x03
      00031D B5*00 03         [24] 1515 	cjne	a,_select_timer_clk_PARM_2,00124$
      000320 43 C9 C0         [24] 1516 	orl	_T2MOD,#0xc0
      000323                       1517 00124$:
                                   1518 ;	../Firmware/src/utils.c:291: }
      000323 22               [24] 1519 	ret
                                   1520 ;------------------------------------------------------------
                                   1521 ;Allocation info for local variables in function 'select_tmr_clk_src'
                                   1522 ;------------------------------------------------------------
                                   1523 ;source                    Allocated with name '_select_tmr_clk_src_PARM_2'
                                   1524 ;_t                        Allocated to registers r7 
                                   1525 ;------------------------------------------------------------
                                   1526 ;	../Firmware/src/utils.c:296: void select_tmr_clk_src(enum TIMER _t, UINT8 source){
                                   1527 ;	-----------------------------------------
                                   1528 ;	 function select_tmr_clk_src
                                   1529 ;	-----------------------------------------
      000324                       1530 _select_tmr_clk_src:
                                   1531 ;	../Firmware/src/utils.c:297: if(_t == TIMER0 && source == 0){
      000324 E5 82            [12] 1532 	mov	a,dpl
      000326 FF               [12] 1533 	mov	r7,a
      000327 70 08            [24] 1534 	jnz	00113$
      000329 E5*00            [12] 1535 	mov	a,_select_tmr_clk_src_PARM_2
      00032B 70 04            [24] 1536 	jnz	00113$
                                   1537 ;	../Firmware/src/utils.c:298: TMOD &= 0xFB;
      00032D 53 89 FB         [24] 1538 	anl	_TMOD,#0xfb
      000330 22               [24] 1539 	ret
      000331                       1540 00113$:
                                   1541 ;	../Firmware/src/utils.c:300: else if(_t == TIMER0 && source == 1){
      000331 EF               [12] 1542 	mov	a,r7
      000332 70 09            [24] 1543 	jnz	00109$
      000334 74 01            [12] 1544 	mov	a,#0x01
      000336 B5*00 04         [24] 1545 	cjne	a,_select_tmr_clk_src_PARM_2,00109$
                                   1546 ;	../Firmware/src/utils.c:301: TMOD |= 0x04;
      000339 43 89 04         [24] 1547 	orl	_TMOD,#0x04
      00033C 22               [24] 1548 	ret
      00033D                       1549 00109$:
                                   1550 ;	../Firmware/src/utils.c:303: else if(_t == TIMER1 && source == 0){
      00033D BF 01 03         [24] 1551 	cjne	r7,#0x01,00171$
      000340 EF               [12] 1552 	mov	a,r7
      000341 80 01            [24] 1553 	sjmp	00172$
      000343                       1554 00171$:
      000343 E4               [12] 1555 	clr	a
      000344                       1556 00172$:
      000344 FF               [12] 1557 	mov	r7,a
      000345 60 08            [24] 1558 	jz	00105$
      000347 E5*00            [12] 1559 	mov	a,_select_tmr_clk_src_PARM_2
      000349 70 04            [24] 1560 	jnz	00105$
                                   1561 ;	../Firmware/src/utils.c:304: TMOD &= 0xBF;
      00034B 53 89 BF         [24] 1562 	anl	_TMOD,#0xbf
      00034E 22               [24] 1563 	ret
      00034F                       1564 00105$:
                                   1565 ;	../Firmware/src/utils.c:306: else if(_t == TIMER1 && source == 1){
      00034F EF               [12] 1566 	mov	a,r7
      000350 60 08            [24] 1567 	jz	00116$
      000352 74 01            [12] 1568 	mov	a,#0x01
      000354 B5*00 03         [24] 1569 	cjne	a,_select_tmr_clk_src_PARM_2,00116$
                                   1570 ;	../Firmware/src/utils.c:307: TMOD |= 0x40;
      000357 43 89 40         [24] 1571 	orl	_TMOD,#0x40
      00035A                       1572 00116$:
                                   1573 ;	../Firmware/src/utils.c:310: }
      00035A 22               [24] 1574 	ret
                                   1575 ;------------------------------------------------------------
                                   1576 ;Allocation info for local variables in function 'update_timer_reg'
                                   1577 ;------------------------------------------------------------
                                   1578 ;value                     Allocated with name '_update_timer_reg_PARM_2'
                                   1579 ;_t                        Allocated to registers r7 
                                   1580 ;------------------------------------------------------------
                                   1581 ;	../Firmware/src/utils.c:315: void update_timer_reg(enum TIMER _t, UINT16 value){
                                   1582 ;	-----------------------------------------
                                   1583 ;	 function update_timer_reg
                                   1584 ;	-----------------------------------------
      00035B                       1585 _update_timer_reg:
      00035B AF 82            [24] 1586 	mov	r7, dpl
                                   1587 ;	../Firmware/src/utils.c:316: switch(_t){
      00035D BF 00 02         [24] 1588 	cjne	r7,#0x00,00125$
      000360 80 0A            [24] 1589 	sjmp	00101$
      000362                       1590 00125$:
      000362 BF 01 02         [24] 1591 	cjne	r7,#0x01,00126$
      000365 80 0C            [24] 1592 	sjmp	00102$
      000367                       1593 00126$:
                                   1594 ;	../Firmware/src/utils.c:317: case TIMER0:    TL0 = (UINT8)value;
      000367 BF 02 16         [24] 1595 	cjne	r7,#0x02,00105$
      00036A 80 0E            [24] 1596 	sjmp	00103$
      00036C                       1597 00101$:
      00036C 85*00 8A         [24] 1598 	mov	_TL0,_update_timer_reg_PARM_2
                                   1599 ;	../Firmware/src/utils.c:318: TH0 = (UINT8)(value >> 8);
      00036F 85*01 8C         [24] 1600 	mov	_TH0,(_update_timer_reg_PARM_2 + 1)
                                   1601 ;	../Firmware/src/utils.c:319: break;
                                   1602 ;	../Firmware/src/utils.c:320: case TIMER1:    TL1 = (UINT8)value;
      000372 22               [24] 1603 	ret
      000373                       1604 00102$:
      000373 85*00 8B         [24] 1605 	mov	_TL1,_update_timer_reg_PARM_2
                                   1606 ;	../Firmware/src/utils.c:321: TH1 = (UINT8)(value >> 8);
      000376 85*01 8D         [24] 1607 	mov	_TH1,(_update_timer_reg_PARM_2 + 1)
                                   1608 ;	../Firmware/src/utils.c:322: break;
                                   1609 ;	../Firmware/src/utils.c:323: case TIMER2:    TL2 = (UINT8)value;
      000379 22               [24] 1610 	ret
      00037A                       1611 00103$:
      00037A 85*00 CC         [24] 1612 	mov	_TL2,_update_timer_reg_PARM_2
                                   1613 ;	../Firmware/src/utils.c:324: TH2 = (UINT8)(value >> 8);
      00037D 85*01 CD         [24] 1614 	mov	_TH2,(_update_timer_reg_PARM_2 + 1)
                                   1615 ;	../Firmware/src/utils.c:326: }
      000380                       1616 00105$:
                                   1617 ;	../Firmware/src/utils.c:327: }
      000380 22               [24] 1618 	ret
                                   1619 ;------------------------------------------------------------
                                   1620 ;Allocation info for local variables in function 'timer_interrupt'
                                   1621 ;------------------------------------------------------------
                                   1622 ;enable_bit                Allocated with name '_timer_interrupt_PARM_2'
                                   1623 ;_t                        Allocated to registers r7 
                                   1624 ;------------------------------------------------------------
                                   1625 ;	../Firmware/src/utils.c:332: void timer_interrupt(enum TIMER _t, UINT8 enable_bit){
                                   1626 ;	-----------------------------------------
                                   1627 ;	 function timer_interrupt
                                   1628 ;	-----------------------------------------
      000381                       1629 _timer_interrupt:
                                   1630 ;	../Firmware/src/utils.c:334: if(_t == TIMER0){
      000381 E5 82            [12] 1631 	mov	a,dpl
      000383 FF               [12] 1632 	mov	r7,a
      000384 70 0F            [24] 1633 	jnz	00116$
                                   1634 ;	../Firmware/src/utils.c:335: if(enable_bit > 0) {
      000386 E5*00            [12] 1635 	mov	a,_timer_interrupt_PARM_2
      000388 60 07            [24] 1636 	jz	00102$
                                   1637 ;	../Firmware/src/utils.c:336: IE |= 0x80;
      00038A 43 A8 80         [24] 1638 	orl	_IE,#0x80
                                   1639 ;	../Firmware/src/utils.c:337: IE |= 0x02;
      00038D 43 A8 02         [24] 1640 	orl	_IE,#0x02
      000390 22               [24] 1641 	ret
      000391                       1642 00102$:
                                   1643 ;	../Firmware/src/utils.c:339: else IE &= 0xFD;
      000391 53 A8 FD         [24] 1644 	anl	_IE,#0xfd
      000394 22               [24] 1645 	ret
      000395                       1646 00116$:
                                   1647 ;	../Firmware/src/utils.c:341: else if(_t == TIMER1){
      000395 BF 01 0F         [24] 1648 	cjne	r7,#0x01,00113$
                                   1649 ;	../Firmware/src/utils.c:342: if(enable_bit > 0) {
      000398 E5*00            [12] 1650 	mov	a,_timer_interrupt_PARM_2
      00039A 60 07            [24] 1651 	jz	00105$
                                   1652 ;	../Firmware/src/utils.c:343: IE |= 0x80;
      00039C 43 A8 80         [24] 1653 	orl	_IE,#0x80
                                   1654 ;	../Firmware/src/utils.c:344: IE |= 0x08; 
      00039F 43 A8 08         [24] 1655 	orl	_IE,#0x08
      0003A2 22               [24] 1656 	ret
      0003A3                       1657 00105$:
                                   1658 ;	../Firmware/src/utils.c:346: else IE &= 0xF7;
      0003A3 53 A8 F7         [24] 1659 	anl	_IE,#0xf7
      0003A6 22               [24] 1660 	ret
      0003A7                       1661 00113$:
                                   1662 ;	../Firmware/src/utils.c:348: else if(_t == TIMER2){
      0003A7 BF 02 0E         [24] 1663 	cjne	r7,#0x02,00118$
                                   1664 ;	../Firmware/src/utils.c:349: if(enable_bit > 0) {
      0003AA E5*00            [12] 1665 	mov	a,_timer_interrupt_PARM_2
      0003AC 60 07            [24] 1666 	jz	00108$
                                   1667 ;	../Firmware/src/utils.c:350: IE |= 0x80;
      0003AE 43 A8 80         [24] 1668 	orl	_IE,#0x80
                                   1669 ;	../Firmware/src/utils.c:351: IE |= 0x20;
      0003B1 43 A8 20         [24] 1670 	orl	_IE,#0x20
      0003B4 22               [24] 1671 	ret
      0003B5                       1672 00108$:
                                   1673 ;	../Firmware/src/utils.c:353: else IE &= 0xDF;
      0003B5 53 A8 DF         [24] 1674 	anl	_IE,#0xdf
      0003B8                       1675 00118$:
                                   1676 ;	../Firmware/src/utils.c:355: }
      0003B8 22               [24] 1677 	ret
                                   1678 ;------------------------------------------------------------
                                   1679 ;Allocation info for local variables in function 'start_timer'
                                   1680 ;------------------------------------------------------------
                                   1681 ;_t                        Allocated to registers r7 
                                   1682 ;------------------------------------------------------------
                                   1683 ;	../Firmware/src/utils.c:359: void start_timer(enum TIMER _t){
                                   1684 ;	-----------------------------------------
                                   1685 ;	 function start_timer
                                   1686 ;	-----------------------------------------
      0003B9                       1687 _start_timer:
                                   1688 ;	../Firmware/src/utils.c:360: if(_t == TIMER0){
      0003B9 E5 82            [12] 1689 	mov	a,dpl
      0003BB FF               [12] 1690 	mov	r7,a
      0003BC 70 05            [24] 1691 	jnz	00104$
                                   1692 ;	../Firmware/src/utils.c:361: TCON |=0x10;
      0003BE 43 88 10         [24] 1693 	orl	_TCON,#0x10
      0003C1 80 06            [24] 1694 	sjmp	00105$
      0003C3                       1695 00104$:
                                   1696 ;	../Firmware/src/utils.c:363: else if(_t == TIMER1){
      0003C3 BF 01 03         [24] 1697 	cjne	r7,#0x01,00105$
                                   1698 ;	../Firmware/src/utils.c:364: TCON |=0x40;
      0003C6 43 88 40         [24] 1699 	orl	_TCON,#0x40
      0003C9                       1700 00105$:
                                   1701 ;	../Firmware/src/utils.c:366: if(_t == TIMER2){
      0003C9 BF 02 03         [24] 1702 	cjne	r7,#0x02,00108$
                                   1703 ;	../Firmware/src/utils.c:367: T2CON |=0x04;
      0003CC 43 C8 04         [24] 1704 	orl	_T2CON,#0x04
      0003CF                       1705 00108$:
                                   1706 ;	../Firmware/src/utils.c:369: }
      0003CF 22               [24] 1707 	ret
                                   1708 ;------------------------------------------------------------
                                   1709 ;Allocation info for local variables in function 'stop_timer'
                                   1710 ;------------------------------------------------------------
                                   1711 ;_t                        Allocated to registers r7 
                                   1712 ;------------------------------------------------------------
                                   1713 ;	../Firmware/src/utils.c:373: void stop_timer(enum TIMER _t){
                                   1714 ;	-----------------------------------------
                                   1715 ;	 function stop_timer
                                   1716 ;	-----------------------------------------
      0003D0                       1717 _stop_timer:
                                   1718 ;	../Firmware/src/utils.c:374: if(_t == TIMER0){
      0003D0 E5 82            [12] 1719 	mov	a,dpl
      0003D2 FF               [12] 1720 	mov	r7,a
      0003D3 70 05            [24] 1721 	jnz	00104$
                                   1722 ;	../Firmware/src/utils.c:375: TCON &=0xEF;
      0003D5 53 88 EF         [24] 1723 	anl	_TCON,#0xef
      0003D8 80 06            [24] 1724 	sjmp	00105$
      0003DA                       1725 00104$:
                                   1726 ;	../Firmware/src/utils.c:377: else if(_t == TIMER1){
      0003DA BF 01 03         [24] 1727 	cjne	r7,#0x01,00105$
                                   1728 ;	../Firmware/src/utils.c:378: TCON &=0xBF;
      0003DD 53 88 BF         [24] 1729 	anl	_TCON,#0xbf
      0003E0                       1730 00105$:
                                   1731 ;	../Firmware/src/utils.c:380: if(_t == TIMER2){
      0003E0 BF 02 03         [24] 1732 	cjne	r7,#0x02,00108$
                                   1733 ;	../Firmware/src/utils.c:381: T2CON &=0xFB;
      0003E3 53 C8 FB         [24] 1734 	anl	_T2CON,#0xfb
      0003E6                       1735 00108$:
                                   1736 ;	../Firmware/src/utils.c:383: }
      0003E6 22               [24] 1737 	ret
                                   1738 ;------------------------------------------------------------
                                   1739 ;Allocation info for local variables in function 'uart_begin'
                                   1740 ;------------------------------------------------------------
                                   1741 ;baudrate                  Allocated with name '_uart_begin_PARM_2'
                                   1742 ;type                      Allocated to registers r7 
                                   1743 ;freq                      Allocated to registers r6 
                                   1744 ;mult                      Allocated to registers r2 r3 r4 r5 
                                   1745 ;------------------------------------------------------------
                                   1746 ;	../Firmware/src/utils.c:392: void uart_begin(enum UART_TYPE type, long baudrate){
                                   1747 ;	-----------------------------------------
                                   1748 ;	 function uart_begin
                                   1749 ;	-----------------------------------------
      0003E7                       1750 _uart_begin:
      0003E7 AF 82            [24] 1751 	mov	r7, dpl
                                   1752 ;	../Firmware/src/utils.c:394: UINT8 freq = get_system_freq();
      0003E9 C0 07            [24] 1753 	push	ar7
      0003EB 12r02r63         [24] 1754 	lcall	_get_system_freq
      0003EE AE 82            [24] 1755 	mov	r6, dpl
      0003F0 D0 07            [24] 1756 	pop	ar7
                                   1757 ;	../Firmware/src/utils.c:395: long mult = 0l; 
      0003F2 7A 00            [12] 1758 	mov	r2,#0x00
      0003F4 7B 00            [12] 1759 	mov	r3,#0x00
      0003F6 7C 00            [12] 1760 	mov	r4,#0x00
      0003F8 7D 00            [12] 1761 	mov	r5,#0x00
                                   1762 ;	../Firmware/src/utils.c:396: switch(freq){
      0003FA EE               [12] 1763 	mov	a,r6
      0003FB 24 F9            [12] 1764 	add	a,#0xff - 0x06
      0003FD 40 58            [24] 1765 	jc	00108$
      0003FF EE               [12] 1766 	mov	a,r6
      000400 2E               [12] 1767 	add	a,r6
                                   1768 ;	../Firmware/src/utils.c:397: case 0: mult = 187500;
      000401 90r04r05         [24] 1769 	mov	dptr,#00126$
      000404 73               [24] 1770 	jmp	@a+dptr
      000405                       1771 00126$:
      000405 80 0C            [24] 1772 	sjmp	00101$
      000407 80 14            [24] 1773 	sjmp	00102$
      000409 80 1C            [24] 1774 	sjmp	00103$
      00040B 80 24            [24] 1775 	sjmp	00104$
      00040D 80 2C            [24] 1776 	sjmp	00105$
      00040F 80 34            [24] 1777 	sjmp	00106$
      000411 80 3C            [24] 1778 	sjmp	00107$
      000413                       1779 00101$:
      000413 7A 6C            [12] 1780 	mov	r2,#0x6c
      000415 7B DC            [12] 1781 	mov	r3,#0xdc
      000417 7C 02            [12] 1782 	mov	r4,#0x02
      000419 7D 00            [12] 1783 	mov	r5,#0x00
                                   1784 ;	../Firmware/src/utils.c:398: break;
                                   1785 ;	../Firmware/src/utils.c:399: case 1: mult = 750000;
      00041B 80 3A            [24] 1786 	sjmp	00108$
      00041D                       1787 00102$:
      00041D 7A B0            [12] 1788 	mov	r2,#0xb0
      00041F 7B 71            [12] 1789 	mov	r3,#0x71
      000421 7C 0B            [12] 1790 	mov	r4,#0x0b
      000423 7D 00            [12] 1791 	mov	r5,#0x00
                                   1792 ;	../Firmware/src/utils.c:400: break;
                                   1793 ;	../Firmware/src/utils.c:401: case 2: mult = 3000000;
      000425 80 30            [24] 1794 	sjmp	00108$
      000427                       1795 00103$:
      000427 7A C0            [12] 1796 	mov	r2,#0xc0
      000429 7B C6            [12] 1797 	mov	r3,#0xc6
      00042B 7C 2D            [12] 1798 	mov	r4,#0x2d
      00042D 7D 00            [12] 1799 	mov	r5,#0x00
                                   1800 ;	../Firmware/src/utils.c:402: break;
                                   1801 ;	../Firmware/src/utils.c:403: case 3: mult = 6000000;
      00042F 80 26            [24] 1802 	sjmp	00108$
      000431                       1803 00104$:
      000431 7A 80            [12] 1804 	mov	r2,#0x80
      000433 7B 8D            [12] 1805 	mov	r3,#0x8d
      000435 7C 5B            [12] 1806 	mov	r4,#0x5b
      000437 7D 00            [12] 1807 	mov	r5,#0x00
                                   1808 ;	../Firmware/src/utils.c:404: break;
                                   1809 ;	../Firmware/src/utils.c:405: case 4: mult = 12000000;
      000439 80 1C            [24] 1810 	sjmp	00108$
      00043B                       1811 00105$:
      00043B 7A 00            [12] 1812 	mov	r2,#0x00
      00043D 7B 1B            [12] 1813 	mov	r3,#0x1b
      00043F 7C B7            [12] 1814 	mov	r4,#0xb7
      000441 7D 00            [12] 1815 	mov	r5,#0x00
                                   1816 ;	../Firmware/src/utils.c:406: break;
                                   1817 ;	../Firmware/src/utils.c:407: case 5: mult = 16000000;
      000443 80 12            [24] 1818 	sjmp	00108$
      000445                       1819 00106$:
      000445 7A 00            [12] 1820 	mov	r2,#0x00
      000447 7B 24            [12] 1821 	mov	r3,#0x24
      000449 7C F4            [12] 1822 	mov	r4,#0xf4
      00044B 7D 00            [12] 1823 	mov	r5,#0x00
                                   1824 ;	../Firmware/src/utils.c:408: break;
                                   1825 ;	../Firmware/src/utils.c:409: case 6: mult = 24000000;
      00044D 80 08            [24] 1826 	sjmp	00108$
      00044F                       1827 00107$:
      00044F 7A 00            [12] 1828 	mov	r2,#0x00
      000451 7B 36            [12] 1829 	mov	r3,#0x36
      000453 7C 6E            [12] 1830 	mov	r4,#0x6e
      000455 7D 01            [12] 1831 	mov	r5,#0x01
                                   1832 ;	../Firmware/src/utils.c:411: }
      000457                       1833 00108$:
                                   1834 ;	../Firmware/src/utils.c:412: if(type == UART0){
      000457 EF               [12] 1835 	mov	a,r7
      000458 70 57            [24] 1836 	jnz	00111$
                                   1837 ;	../Firmware/src/utils.c:413: T2CON &= 0xCF;
      00045A 53 C8 CF         [24] 1838 	anl	_T2CON,#0xcf
                                   1839 ;	../Firmware/src/utils.c:414: T2MOD |= 0xA0;
      00045D 43 C9 A0         [24] 1840 	orl	_T2MOD,#0xa0
                                   1841 ;	../Firmware/src/utils.c:415: PCON |= 0x80;
      000460 43 87 80         [24] 1842 	orl	_PCON,#0x80
                                   1843 ;	../Firmware/src/utils.c:416: TH1 = 256 - mult / 16 / baudrate;
      000463 75*00 10         [24] 1844 	mov	__divslong_PARM_2,#0x10
      000466 E4               [12] 1845 	clr	a
      000467 F5*01            [12] 1846 	mov	(__divslong_PARM_2 + 1),a
      000469 F5*02            [12] 1847 	mov	(__divslong_PARM_2 + 2),a
      00046B F5*03            [12] 1848 	mov	(__divslong_PARM_2 + 3),a
      00046D 8A 82            [24] 1849 	mov	dpl, r2
      00046F 8B 83            [24] 1850 	mov	dph, r3
      000471 8C F0            [24] 1851 	mov	b, r4
      000473 ED               [12] 1852 	mov	a, r5
      000474 12r00r00         [24] 1853 	lcall	__divslong
      000477 85*01*00         [24] 1854 	mov	__divslong_PARM_2,_uart_begin_PARM_2
      00047A 85*02*01         [24] 1855 	mov	(__divslong_PARM_2 + 1),(_uart_begin_PARM_2 + 1)
      00047D 85*03*02         [24] 1856 	mov	(__divslong_PARM_2 + 2),(_uart_begin_PARM_2 + 2)
      000480 85*04*03         [24] 1857 	mov	(__divslong_PARM_2 + 3),(_uart_begin_PARM_2 + 3)
      000483 12r00r00         [24] 1858 	lcall	__divslong
      000486 AC 82            [24] 1859 	mov	r4, dpl
      000488 C3               [12] 1860 	clr	c
      000489 E4               [12] 1861 	clr	a
      00048A 9C               [12] 1862 	subb	a,r4
      00048B F5 8D            [12] 1863 	mov	_TH1,a
                                   1864 ;	../Firmware/src/utils.c:417: timer_interrupt(TIMER1,1);
      00048D 75*00 01         [24] 1865 	mov	_timer_interrupt_PARM_2,#0x01
      000490 75 82 01         [24] 1866 	mov	dpl, #0x01
      000493 12r03r81         [24] 1867 	lcall	_timer_interrupt
                                   1868 ;	../Firmware/src/utils.c:418: set_timer_mode(TIMER1,TMR_MODE_2);
      000496 75*00 02         [24] 1869 	mov	_set_timer_mode_PARM_2,#0x02
      000499 75 82 01         [24] 1870 	mov	dpl, #0x01
      00049C 12r02r6A         [24] 1871 	lcall	_set_timer_mode
                                   1872 ;	../Firmware/src/utils.c:419: TMOD &= 0xB7;
      00049F 53 89 B7         [24] 1873 	anl	_TMOD,#0xb7
                                   1874 ;	../Firmware/src/utils.c:420: start_timer(TIMER1);
      0004A2 75 82 01         [24] 1875 	mov	dpl, #0x01
      0004A5 12r03rB9         [24] 1876 	lcall	_start_timer
                                   1877 ;	../Firmware/src/utils.c:421: SCON |= 0x50;
      0004A8 43 98 50         [24] 1878 	orl	_SCON,#0x50
                                   1879 ;	../Firmware/src/utils.c:422: IE &= 0xBF;
      0004AB 53 A8 BF         [24] 1880 	anl	_IE,#0xbf
                                   1881 ;	../Firmware/src/utils.c:423: IE |= 0x90;
      0004AE 43 A8 90         [24] 1882 	orl	_IE,#0x90
      0004B1                       1883 00111$:
                                   1884 ;	../Firmware/src/utils.c:429: }
      0004B1 22               [24] 1885 	ret
                                   1886 ;------------------------------------------------------------
                                   1887 ;Allocation info for local variables in function 'uart0_write'
                                   1888 ;------------------------------------------------------------
                                   1889 ;data                      Allocated to registers 
                                   1890 ;------------------------------------------------------------
                                   1891 ;	../Firmware/src/utils.c:434: void uart0_write(UINT8 data){
                                   1892 ;	-----------------------------------------
                                   1893 ;	 function uart0_write
                                   1894 ;	-----------------------------------------
      0004B2                       1895 _uart0_write:
      0004B2 85 82 99         [24] 1896 	mov	_SBUF,dpl
                                   1897 ;	../Firmware/src/utils.c:436: while (((SCON >> 1) & 0x01) == 0) {
      0004B5                       1898 00101$:
      0004B5 E5 98            [12] 1899 	mov	a,_SCON
      0004B7 03               [12] 1900 	rr	a
      0004B8 54 01            [12] 1901 	anl	a,#0x01
      0004BA 60 F9            [24] 1902 	jz	00101$
                                   1903 ;	../Firmware/src/utils.c:439: SCON &= 0xFD; 
      0004BC 53 98 FD         [24] 1904 	anl	_SCON,#0xfd
                                   1905 ;	../Firmware/src/utils.c:440: }
      0004BF 22               [24] 1906 	ret
                                   1907 ;------------------------------------------------------------
                                   1908 ;Allocation info for local variables in function 'uart0_print'
                                   1909 ;------------------------------------------------------------
                                   1910 ;data                      Allocated to registers r5 r6 r7 
                                   1911 ;index                     Allocated to registers r3 r4 
                                   1912 ;------------------------------------------------------------
                                   1913 ;	../Firmware/src/utils.c:444: void uart0_print(char * data){
                                   1914 ;	-----------------------------------------
                                   1915 ;	 function uart0_print
                                   1916 ;	-----------------------------------------
      0004C0                       1917 _uart0_print:
      0004C0 AD 82            [24] 1918 	mov	r5, dpl
      0004C2 AE 83            [24] 1919 	mov	r6, dph
      0004C4 AF F0            [24] 1920 	mov	r7, b
                                   1921 ;	../Firmware/src/utils.c:446: while(data[index] != '\0'){
      0004C6 7B 00            [12] 1922 	mov	r3,#0x00
      0004C8 7C 00            [12] 1923 	mov	r4,#0x00
      0004CA                       1924 00101$:
      0004CA EB               [12] 1925 	mov	a,r3
      0004CB 2D               [12] 1926 	add	a, r5
      0004CC F8               [12] 1927 	mov	r0,a
      0004CD EC               [12] 1928 	mov	a,r4
      0004CE 3E               [12] 1929 	addc	a, r6
      0004CF F9               [12] 1930 	mov	r1,a
      0004D0 8F 02            [24] 1931 	mov	ar2,r7
      0004D2 88 82            [24] 1932 	mov	dpl,r0
      0004D4 89 83            [24] 1933 	mov	dph,r1
      0004D6 8A F0            [24] 1934 	mov	b,r2
      0004D8 12r00r00         [24] 1935 	lcall	__gptrget
      0004DB 60 31            [24] 1936 	jz	00104$
                                   1937 ;	../Firmware/src/utils.c:447: uart0_write(data[index++]);
      0004DD EB               [12] 1938 	mov	a,r3
      0004DE 2D               [12] 1939 	add	a, r5
      0004DF F8               [12] 1940 	mov	r0,a
      0004E0 EC               [12] 1941 	mov	a,r4
      0004E1 3E               [12] 1942 	addc	a, r6
      0004E2 F9               [12] 1943 	mov	r1,a
      0004E3 8F 02            [24] 1944 	mov	ar2,r7
      0004E5 0B               [12] 1945 	inc	r3
      0004E6 BB 00 01         [24] 1946 	cjne	r3,#0x00,00120$
      0004E9 0C               [12] 1947 	inc	r4
      0004EA                       1948 00120$:
      0004EA 88 82            [24] 1949 	mov	dpl,r0
      0004EC 89 83            [24] 1950 	mov	dph,r1
      0004EE 8A F0            [24] 1951 	mov	b,r2
      0004F0 12r00r00         [24] 1952 	lcall	__gptrget
      0004F3 F5 82            [12] 1953 	mov	dpl,a
      0004F5 C0 07            [24] 1954 	push	ar7
      0004F7 C0 06            [24] 1955 	push	ar6
      0004F9 C0 05            [24] 1956 	push	ar5
      0004FB C0 04            [24] 1957 	push	ar4
      0004FD C0 03            [24] 1958 	push	ar3
      0004FF 12r04rB2         [24] 1959 	lcall	_uart0_write
      000502 D0 03            [24] 1960 	pop	ar3
      000504 D0 04            [24] 1961 	pop	ar4
      000506 D0 05            [24] 1962 	pop	ar5
      000508 D0 06            [24] 1963 	pop	ar6
      00050A D0 07            [24] 1964 	pop	ar7
      00050C 80 BC            [24] 1965 	sjmp	00101$
      00050E                       1966 00104$:
                                   1967 ;	../Firmware/src/utils.c:449: }
      00050E 22               [24] 1968 	ret
                                   1969 ;------------------------------------------------------------
                                   1970 ;Allocation info for local variables in function 'uart0_println'
                                   1971 ;------------------------------------------------------------
                                   1972 ;data                      Allocated to registers r5 r6 r7 
                                   1973 ;t                         Allocated with name '_uart0_println_t_10000_199'
                                   1974 ;------------------------------------------------------------
                                   1975 ;	../Firmware/src/utils.c:453: void uart0_println(char * data){
                                   1976 ;	-----------------------------------------
                                   1977 ;	 function uart0_println
                                   1978 ;	-----------------------------------------
      00050F                       1979 _uart0_println:
      00050F AD 82            [24] 1980 	mov	r5, dpl
      000511 AE 83            [24] 1981 	mov	r6, dph
      000513 AF F0            [24] 1982 	mov	r7, b
                                   1983 ;	../Firmware/src/utils.c:454: __xdata unsigned char t[256] = {0};
      000515 90r00r50         [24] 1984 	mov	dptr,#_uart0_println_t_10000_199
      000518 E4               [12] 1985 	clr	a
      000519 F0               [24] 1986 	movx	@dptr,a
      00051A 90r00r51         [24] 1987 	mov	dptr,#(_uart0_println_t_10000_199 + 0x0001)
      00051D F0               [24] 1988 	movx	@dptr,a
      00051E 90r00r52         [24] 1989 	mov	dptr,#(_uart0_println_t_10000_199 + 0x0002)
      000521 F0               [24] 1990 	movx	@dptr,a
      000522 90r00r53         [24] 1991 	mov	dptr,#(_uart0_println_t_10000_199 + 0x0003)
      000525 F0               [24] 1992 	movx	@dptr,a
      000526 90r00r54         [24] 1993 	mov	dptr,#(_uart0_println_t_10000_199 + 0x0004)
      000529 F0               [24] 1994 	movx	@dptr,a
      00052A 90r00r55         [24] 1995 	mov	dptr,#(_uart0_println_t_10000_199 + 0x0005)
      00052D F0               [24] 1996 	movx	@dptr,a
      00052E 90r00r56         [24] 1997 	mov	dptr,#(_uart0_println_t_10000_199 + 0x0006)
      000531 F0               [24] 1998 	movx	@dptr,a
      000532 90r00r57         [24] 1999 	mov	dptr,#(_uart0_println_t_10000_199 + 0x0007)
      000535 F0               [24] 2000 	movx	@dptr,a
      000536 90r00r58         [24] 2001 	mov	dptr,#(_uart0_println_t_10000_199 + 0x0008)
      000539 F0               [24] 2002 	movx	@dptr,a
      00053A 90r00r59         [24] 2003 	mov	dptr,#(_uart0_println_t_10000_199 + 0x0009)
      00053D F0               [24] 2004 	movx	@dptr,a
      00053E 90r00r5A         [24] 2005 	mov	dptr,#(_uart0_println_t_10000_199 + 0x000a)
      000541 F0               [24] 2006 	movx	@dptr,a
      000542 90r00r5B         [24] 2007 	mov	dptr,#(_uart0_println_t_10000_199 + 0x000b)
      000545 F0               [24] 2008 	movx	@dptr,a
      000546 90r00r5C         [24] 2009 	mov	dptr,#(_uart0_println_t_10000_199 + 0x000c)
      000549 F0               [24] 2010 	movx	@dptr,a
      00054A 90r00r5D         [24] 2011 	mov	dptr,#(_uart0_println_t_10000_199 + 0x000d)
      00054D F0               [24] 2012 	movx	@dptr,a
      00054E 90r00r5E         [24] 2013 	mov	dptr,#(_uart0_println_t_10000_199 + 0x000e)
      000551 F0               [24] 2014 	movx	@dptr,a
      000552 90r00r5F         [24] 2015 	mov	dptr,#(_uart0_println_t_10000_199 + 0x000f)
      000555 F0               [24] 2016 	movx	@dptr,a
      000556 90r00r60         [24] 2017 	mov	dptr,#(_uart0_println_t_10000_199 + 0x0010)
      000559 F0               [24] 2018 	movx	@dptr,a
      00055A 90r00r61         [24] 2019 	mov	dptr,#(_uart0_println_t_10000_199 + 0x0011)
      00055D F0               [24] 2020 	movx	@dptr,a
      00055E 90r00r62         [24] 2021 	mov	dptr,#(_uart0_println_t_10000_199 + 0x0012)
      000561 F0               [24] 2022 	movx	@dptr,a
      000562 90r00r63         [24] 2023 	mov	dptr,#(_uart0_println_t_10000_199 + 0x0013)
      000565 F0               [24] 2024 	movx	@dptr,a
      000566 90r00r64         [24] 2025 	mov	dptr,#(_uart0_println_t_10000_199 + 0x0014)
      000569 F0               [24] 2026 	movx	@dptr,a
      00056A 90r00r65         [24] 2027 	mov	dptr,#(_uart0_println_t_10000_199 + 0x0015)
      00056D F0               [24] 2028 	movx	@dptr,a
      00056E 90r00r66         [24] 2029 	mov	dptr,#(_uart0_println_t_10000_199 + 0x0016)
      000571 F0               [24] 2030 	movx	@dptr,a
      000572 90r00r67         [24] 2031 	mov	dptr,#(_uart0_println_t_10000_199 + 0x0017)
      000575 F0               [24] 2032 	movx	@dptr,a
      000576 90r00r68         [24] 2033 	mov	dptr,#(_uart0_println_t_10000_199 + 0x0018)
      000579 F0               [24] 2034 	movx	@dptr,a
      00057A 90r00r69         [24] 2035 	mov	dptr,#(_uart0_println_t_10000_199 + 0x0019)
      00057D F0               [24] 2036 	movx	@dptr,a
      00057E 90r00r6A         [24] 2037 	mov	dptr,#(_uart0_println_t_10000_199 + 0x001a)
      000581 F0               [24] 2038 	movx	@dptr,a
      000582 90r00r6B         [24] 2039 	mov	dptr,#(_uart0_println_t_10000_199 + 0x001b)
      000585 F0               [24] 2040 	movx	@dptr,a
      000586 90r00r6C         [24] 2041 	mov	dptr,#(_uart0_println_t_10000_199 + 0x001c)
      000589 F0               [24] 2042 	movx	@dptr,a
      00058A 90r00r6D         [24] 2043 	mov	dptr,#(_uart0_println_t_10000_199 + 0x001d)
      00058D F0               [24] 2044 	movx	@dptr,a
      00058E 90r00r6E         [24] 2045 	mov	dptr,#(_uart0_println_t_10000_199 + 0x001e)
      000591 F0               [24] 2046 	movx	@dptr,a
      000592 90r00r6F         [24] 2047 	mov	dptr,#(_uart0_println_t_10000_199 + 0x001f)
      000595 F0               [24] 2048 	movx	@dptr,a
      000596 90r00r70         [24] 2049 	mov	dptr,#(_uart0_println_t_10000_199 + 0x0020)
      000599 F0               [24] 2050 	movx	@dptr,a
      00059A 90r00r71         [24] 2051 	mov	dptr,#(_uart0_println_t_10000_199 + 0x0021)
      00059D F0               [24] 2052 	movx	@dptr,a
      00059E 90r00r72         [24] 2053 	mov	dptr,#(_uart0_println_t_10000_199 + 0x0022)
      0005A1 F0               [24] 2054 	movx	@dptr,a
      0005A2 90r00r73         [24] 2055 	mov	dptr,#(_uart0_println_t_10000_199 + 0x0023)
      0005A5 F0               [24] 2056 	movx	@dptr,a
      0005A6 90r00r74         [24] 2057 	mov	dptr,#(_uart0_println_t_10000_199 + 0x0024)
      0005A9 F0               [24] 2058 	movx	@dptr,a
      0005AA 90r00r75         [24] 2059 	mov	dptr,#(_uart0_println_t_10000_199 + 0x0025)
      0005AD F0               [24] 2060 	movx	@dptr,a
      0005AE 90r00r76         [24] 2061 	mov	dptr,#(_uart0_println_t_10000_199 + 0x0026)
      0005B1 F0               [24] 2062 	movx	@dptr,a
      0005B2 90r00r77         [24] 2063 	mov	dptr,#(_uart0_println_t_10000_199 + 0x0027)
      0005B5 F0               [24] 2064 	movx	@dptr,a
      0005B6 90r00r78         [24] 2065 	mov	dptr,#(_uart0_println_t_10000_199 + 0x0028)
      0005B9 F0               [24] 2066 	movx	@dptr,a
      0005BA 90r00r79         [24] 2067 	mov	dptr,#(_uart0_println_t_10000_199 + 0x0029)
      0005BD F0               [24] 2068 	movx	@dptr,a
      0005BE 90r00r7A         [24] 2069 	mov	dptr,#(_uart0_println_t_10000_199 + 0x002a)
      0005C1 F0               [24] 2070 	movx	@dptr,a
      0005C2 90r00r7B         [24] 2071 	mov	dptr,#(_uart0_println_t_10000_199 + 0x002b)
      0005C5 F0               [24] 2072 	movx	@dptr,a
      0005C6 90r00r7C         [24] 2073 	mov	dptr,#(_uart0_println_t_10000_199 + 0x002c)
      0005C9 F0               [24] 2074 	movx	@dptr,a
      0005CA 90r00r7D         [24] 2075 	mov	dptr,#(_uart0_println_t_10000_199 + 0x002d)
      0005CD F0               [24] 2076 	movx	@dptr,a
      0005CE 90r00r7E         [24] 2077 	mov	dptr,#(_uart0_println_t_10000_199 + 0x002e)
      0005D1 F0               [24] 2078 	movx	@dptr,a
      0005D2 90r00r7F         [24] 2079 	mov	dptr,#(_uart0_println_t_10000_199 + 0x002f)
      0005D5 F0               [24] 2080 	movx	@dptr,a
      0005D6 90r00r80         [24] 2081 	mov	dptr,#(_uart0_println_t_10000_199 + 0x0030)
      0005D9 F0               [24] 2082 	movx	@dptr,a
      0005DA 90r00r81         [24] 2083 	mov	dptr,#(_uart0_println_t_10000_199 + 0x0031)
      0005DD F0               [24] 2084 	movx	@dptr,a
      0005DE 90r00r82         [24] 2085 	mov	dptr,#(_uart0_println_t_10000_199 + 0x0032)
      0005E1 F0               [24] 2086 	movx	@dptr,a
      0005E2 90r00r83         [24] 2087 	mov	dptr,#(_uart0_println_t_10000_199 + 0x0033)
      0005E5 F0               [24] 2088 	movx	@dptr,a
      0005E6 90r00r84         [24] 2089 	mov	dptr,#(_uart0_println_t_10000_199 + 0x0034)
      0005E9 F0               [24] 2090 	movx	@dptr,a
      0005EA 90r00r85         [24] 2091 	mov	dptr,#(_uart0_println_t_10000_199 + 0x0035)
      0005ED F0               [24] 2092 	movx	@dptr,a
      0005EE 90r00r86         [24] 2093 	mov	dptr,#(_uart0_println_t_10000_199 + 0x0036)
      0005F1 F0               [24] 2094 	movx	@dptr,a
      0005F2 90r00r87         [24] 2095 	mov	dptr,#(_uart0_println_t_10000_199 + 0x0037)
      0005F5 F0               [24] 2096 	movx	@dptr,a
      0005F6 90r00r88         [24] 2097 	mov	dptr,#(_uart0_println_t_10000_199 + 0x0038)
      0005F9 F0               [24] 2098 	movx	@dptr,a
      0005FA 90r00r89         [24] 2099 	mov	dptr,#(_uart0_println_t_10000_199 + 0x0039)
      0005FD F0               [24] 2100 	movx	@dptr,a
      0005FE 90r00r8A         [24] 2101 	mov	dptr,#(_uart0_println_t_10000_199 + 0x003a)
      000601 F0               [24] 2102 	movx	@dptr,a
      000602 90r00r8B         [24] 2103 	mov	dptr,#(_uart0_println_t_10000_199 + 0x003b)
      000605 F0               [24] 2104 	movx	@dptr,a
      000606 90r00r8C         [24] 2105 	mov	dptr,#(_uart0_println_t_10000_199 + 0x003c)
      000609 F0               [24] 2106 	movx	@dptr,a
      00060A 90r00r8D         [24] 2107 	mov	dptr,#(_uart0_println_t_10000_199 + 0x003d)
      00060D F0               [24] 2108 	movx	@dptr,a
      00060E 90r00r8E         [24] 2109 	mov	dptr,#(_uart0_println_t_10000_199 + 0x003e)
      000611 F0               [24] 2110 	movx	@dptr,a
      000612 90r00r8F         [24] 2111 	mov	dptr,#(_uart0_println_t_10000_199 + 0x003f)
      000615 F0               [24] 2112 	movx	@dptr,a
      000616 90r00r90         [24] 2113 	mov	dptr,#(_uart0_println_t_10000_199 + 0x0040)
      000619 F0               [24] 2114 	movx	@dptr,a
      00061A 90r00r91         [24] 2115 	mov	dptr,#(_uart0_println_t_10000_199 + 0x0041)
      00061D F0               [24] 2116 	movx	@dptr,a
      00061E 90r00r92         [24] 2117 	mov	dptr,#(_uart0_println_t_10000_199 + 0x0042)
      000621 F0               [24] 2118 	movx	@dptr,a
      000622 90r00r93         [24] 2119 	mov	dptr,#(_uart0_println_t_10000_199 + 0x0043)
      000625 F0               [24] 2120 	movx	@dptr,a
      000626 90r00r94         [24] 2121 	mov	dptr,#(_uart0_println_t_10000_199 + 0x0044)
      000629 F0               [24] 2122 	movx	@dptr,a
      00062A 90r00r95         [24] 2123 	mov	dptr,#(_uart0_println_t_10000_199 + 0x0045)
      00062D F0               [24] 2124 	movx	@dptr,a
      00062E 90r00r96         [24] 2125 	mov	dptr,#(_uart0_println_t_10000_199 + 0x0046)
      000631 F0               [24] 2126 	movx	@dptr,a
      000632 90r00r97         [24] 2127 	mov	dptr,#(_uart0_println_t_10000_199 + 0x0047)
      000635 F0               [24] 2128 	movx	@dptr,a
      000636 90r00r98         [24] 2129 	mov	dptr,#(_uart0_println_t_10000_199 + 0x0048)
      000639 F0               [24] 2130 	movx	@dptr,a
      00063A 90r00r99         [24] 2131 	mov	dptr,#(_uart0_println_t_10000_199 + 0x0049)
      00063D F0               [24] 2132 	movx	@dptr,a
      00063E 90r00r9A         [24] 2133 	mov	dptr,#(_uart0_println_t_10000_199 + 0x004a)
      000641 F0               [24] 2134 	movx	@dptr,a
      000642 90r00r9B         [24] 2135 	mov	dptr,#(_uart0_println_t_10000_199 + 0x004b)
      000645 F0               [24] 2136 	movx	@dptr,a
      000646 90r00r9C         [24] 2137 	mov	dptr,#(_uart0_println_t_10000_199 + 0x004c)
      000649 F0               [24] 2138 	movx	@dptr,a
      00064A 90r00r9D         [24] 2139 	mov	dptr,#(_uart0_println_t_10000_199 + 0x004d)
      00064D F0               [24] 2140 	movx	@dptr,a
      00064E 90r00r9E         [24] 2141 	mov	dptr,#(_uart0_println_t_10000_199 + 0x004e)
      000651 F0               [24] 2142 	movx	@dptr,a
      000652 90r00r9F         [24] 2143 	mov	dptr,#(_uart0_println_t_10000_199 + 0x004f)
      000655 F0               [24] 2144 	movx	@dptr,a
      000656 90r00rA0         [24] 2145 	mov	dptr,#(_uart0_println_t_10000_199 + 0x0050)
      000659 F0               [24] 2146 	movx	@dptr,a
      00065A 90r00rA1         [24] 2147 	mov	dptr,#(_uart0_println_t_10000_199 + 0x0051)
      00065D F0               [24] 2148 	movx	@dptr,a
      00065E 90r00rA2         [24] 2149 	mov	dptr,#(_uart0_println_t_10000_199 + 0x0052)
      000661 F0               [24] 2150 	movx	@dptr,a
      000662 90r00rA3         [24] 2151 	mov	dptr,#(_uart0_println_t_10000_199 + 0x0053)
      000665 F0               [24] 2152 	movx	@dptr,a
      000666 90r00rA4         [24] 2153 	mov	dptr,#(_uart0_println_t_10000_199 + 0x0054)
      000669 F0               [24] 2154 	movx	@dptr,a
      00066A 90r00rA5         [24] 2155 	mov	dptr,#(_uart0_println_t_10000_199 + 0x0055)
      00066D F0               [24] 2156 	movx	@dptr,a
      00066E 90r00rA6         [24] 2157 	mov	dptr,#(_uart0_println_t_10000_199 + 0x0056)
      000671 F0               [24] 2158 	movx	@dptr,a
      000672 90r00rA7         [24] 2159 	mov	dptr,#(_uart0_println_t_10000_199 + 0x0057)
      000675 F0               [24] 2160 	movx	@dptr,a
      000676 90r00rA8         [24] 2161 	mov	dptr,#(_uart0_println_t_10000_199 + 0x0058)
      000679 F0               [24] 2162 	movx	@dptr,a
      00067A 90r00rA9         [24] 2163 	mov	dptr,#(_uart0_println_t_10000_199 + 0x0059)
      00067D F0               [24] 2164 	movx	@dptr,a
      00067E 90r00rAA         [24] 2165 	mov	dptr,#(_uart0_println_t_10000_199 + 0x005a)
      000681 F0               [24] 2166 	movx	@dptr,a
      000682 90r00rAB         [24] 2167 	mov	dptr,#(_uart0_println_t_10000_199 + 0x005b)
      000685 F0               [24] 2168 	movx	@dptr,a
      000686 90r00rAC         [24] 2169 	mov	dptr,#(_uart0_println_t_10000_199 + 0x005c)
      000689 F0               [24] 2170 	movx	@dptr,a
      00068A 90r00rAD         [24] 2171 	mov	dptr,#(_uart0_println_t_10000_199 + 0x005d)
      00068D F0               [24] 2172 	movx	@dptr,a
      00068E 90r00rAE         [24] 2173 	mov	dptr,#(_uart0_println_t_10000_199 + 0x005e)
      000691 F0               [24] 2174 	movx	@dptr,a
      000692 90r00rAF         [24] 2175 	mov	dptr,#(_uart0_println_t_10000_199 + 0x005f)
      000695 F0               [24] 2176 	movx	@dptr,a
      000696 90r00rB0         [24] 2177 	mov	dptr,#(_uart0_println_t_10000_199 + 0x0060)
      000699 F0               [24] 2178 	movx	@dptr,a
      00069A 90r00rB1         [24] 2179 	mov	dptr,#(_uart0_println_t_10000_199 + 0x0061)
      00069D F0               [24] 2180 	movx	@dptr,a
      00069E 90r00rB2         [24] 2181 	mov	dptr,#(_uart0_println_t_10000_199 + 0x0062)
      0006A1 F0               [24] 2182 	movx	@dptr,a
      0006A2 90r00rB3         [24] 2183 	mov	dptr,#(_uart0_println_t_10000_199 + 0x0063)
      0006A5 F0               [24] 2184 	movx	@dptr,a
      0006A6 90r00rB4         [24] 2185 	mov	dptr,#(_uart0_println_t_10000_199 + 0x0064)
      0006A9 F0               [24] 2186 	movx	@dptr,a
      0006AA 90r00rB5         [24] 2187 	mov	dptr,#(_uart0_println_t_10000_199 + 0x0065)
      0006AD F0               [24] 2188 	movx	@dptr,a
      0006AE 90r00rB6         [24] 2189 	mov	dptr,#(_uart0_println_t_10000_199 + 0x0066)
      0006B1 F0               [24] 2190 	movx	@dptr,a
      0006B2 90r00rB7         [24] 2191 	mov	dptr,#(_uart0_println_t_10000_199 + 0x0067)
      0006B5 F0               [24] 2192 	movx	@dptr,a
      0006B6 90r00rB8         [24] 2193 	mov	dptr,#(_uart0_println_t_10000_199 + 0x0068)
      0006B9 F0               [24] 2194 	movx	@dptr,a
      0006BA 90r00rB9         [24] 2195 	mov	dptr,#(_uart0_println_t_10000_199 + 0x0069)
      0006BD F0               [24] 2196 	movx	@dptr,a
      0006BE 90r00rBA         [24] 2197 	mov	dptr,#(_uart0_println_t_10000_199 + 0x006a)
      0006C1 F0               [24] 2198 	movx	@dptr,a
      0006C2 90r00rBB         [24] 2199 	mov	dptr,#(_uart0_println_t_10000_199 + 0x006b)
      0006C5 F0               [24] 2200 	movx	@dptr,a
      0006C6 90r00rBC         [24] 2201 	mov	dptr,#(_uart0_println_t_10000_199 + 0x006c)
      0006C9 F0               [24] 2202 	movx	@dptr,a
      0006CA 90r00rBD         [24] 2203 	mov	dptr,#(_uart0_println_t_10000_199 + 0x006d)
      0006CD F0               [24] 2204 	movx	@dptr,a
      0006CE 90r00rBE         [24] 2205 	mov	dptr,#(_uart0_println_t_10000_199 + 0x006e)
      0006D1 F0               [24] 2206 	movx	@dptr,a
      0006D2 90r00rBF         [24] 2207 	mov	dptr,#(_uart0_println_t_10000_199 + 0x006f)
      0006D5 F0               [24] 2208 	movx	@dptr,a
      0006D6 90r00rC0         [24] 2209 	mov	dptr,#(_uart0_println_t_10000_199 + 0x0070)
      0006D9 F0               [24] 2210 	movx	@dptr,a
      0006DA 90r00rC1         [24] 2211 	mov	dptr,#(_uart0_println_t_10000_199 + 0x0071)
      0006DD F0               [24] 2212 	movx	@dptr,a
      0006DE 90r00rC2         [24] 2213 	mov	dptr,#(_uart0_println_t_10000_199 + 0x0072)
      0006E1 F0               [24] 2214 	movx	@dptr,a
      0006E2 90r00rC3         [24] 2215 	mov	dptr,#(_uart0_println_t_10000_199 + 0x0073)
      0006E5 F0               [24] 2216 	movx	@dptr,a
      0006E6 90r00rC4         [24] 2217 	mov	dptr,#(_uart0_println_t_10000_199 + 0x0074)
      0006E9 F0               [24] 2218 	movx	@dptr,a
      0006EA 90r00rC5         [24] 2219 	mov	dptr,#(_uart0_println_t_10000_199 + 0x0075)
      0006ED F0               [24] 2220 	movx	@dptr,a
      0006EE 90r00rC6         [24] 2221 	mov	dptr,#(_uart0_println_t_10000_199 + 0x0076)
      0006F1 F0               [24] 2222 	movx	@dptr,a
      0006F2 90r00rC7         [24] 2223 	mov	dptr,#(_uart0_println_t_10000_199 + 0x0077)
      0006F5 F0               [24] 2224 	movx	@dptr,a
      0006F6 90r00rC8         [24] 2225 	mov	dptr,#(_uart0_println_t_10000_199 + 0x0078)
      0006F9 F0               [24] 2226 	movx	@dptr,a
      0006FA 90r00rC9         [24] 2227 	mov	dptr,#(_uart0_println_t_10000_199 + 0x0079)
      0006FD F0               [24] 2228 	movx	@dptr,a
      0006FE 90r00rCA         [24] 2229 	mov	dptr,#(_uart0_println_t_10000_199 + 0x007a)
      000701 F0               [24] 2230 	movx	@dptr,a
      000702 90r00rCB         [24] 2231 	mov	dptr,#(_uart0_println_t_10000_199 + 0x007b)
      000705 F0               [24] 2232 	movx	@dptr,a
      000706 90r00rCC         [24] 2233 	mov	dptr,#(_uart0_println_t_10000_199 + 0x007c)
      000709 F0               [24] 2234 	movx	@dptr,a
      00070A 90r00rCD         [24] 2235 	mov	dptr,#(_uart0_println_t_10000_199 + 0x007d)
      00070D F0               [24] 2236 	movx	@dptr,a
      00070E 90r00rCE         [24] 2237 	mov	dptr,#(_uart0_println_t_10000_199 + 0x007e)
      000711 F0               [24] 2238 	movx	@dptr,a
      000712 90r00rCF         [24] 2239 	mov	dptr,#(_uart0_println_t_10000_199 + 0x007f)
      000715 F0               [24] 2240 	movx	@dptr,a
      000716 90r00rD0         [24] 2241 	mov	dptr,#(_uart0_println_t_10000_199 + 0x0080)
      000719 F0               [24] 2242 	movx	@dptr,a
      00071A 90r00rD1         [24] 2243 	mov	dptr,#(_uart0_println_t_10000_199 + 0x0081)
      00071D F0               [24] 2244 	movx	@dptr,a
      00071E 90r00rD2         [24] 2245 	mov	dptr,#(_uart0_println_t_10000_199 + 0x0082)
      000721 F0               [24] 2246 	movx	@dptr,a
      000722 90r00rD3         [24] 2247 	mov	dptr,#(_uart0_println_t_10000_199 + 0x0083)
      000725 F0               [24] 2248 	movx	@dptr,a
      000726 90r00rD4         [24] 2249 	mov	dptr,#(_uart0_println_t_10000_199 + 0x0084)
      000729 F0               [24] 2250 	movx	@dptr,a
      00072A 90r00rD5         [24] 2251 	mov	dptr,#(_uart0_println_t_10000_199 + 0x0085)
      00072D F0               [24] 2252 	movx	@dptr,a
      00072E 90r00rD6         [24] 2253 	mov	dptr,#(_uart0_println_t_10000_199 + 0x0086)
      000731 F0               [24] 2254 	movx	@dptr,a
      000732 90r00rD7         [24] 2255 	mov	dptr,#(_uart0_println_t_10000_199 + 0x0087)
      000735 F0               [24] 2256 	movx	@dptr,a
      000736 90r00rD8         [24] 2257 	mov	dptr,#(_uart0_println_t_10000_199 + 0x0088)
      000739 F0               [24] 2258 	movx	@dptr,a
      00073A 90r00rD9         [24] 2259 	mov	dptr,#(_uart0_println_t_10000_199 + 0x0089)
      00073D F0               [24] 2260 	movx	@dptr,a
      00073E 90r00rDA         [24] 2261 	mov	dptr,#(_uart0_println_t_10000_199 + 0x008a)
      000741 F0               [24] 2262 	movx	@dptr,a
      000742 90r00rDB         [24] 2263 	mov	dptr,#(_uart0_println_t_10000_199 + 0x008b)
      000745 F0               [24] 2264 	movx	@dptr,a
      000746 90r00rDC         [24] 2265 	mov	dptr,#(_uart0_println_t_10000_199 + 0x008c)
      000749 F0               [24] 2266 	movx	@dptr,a
      00074A 90r00rDD         [24] 2267 	mov	dptr,#(_uart0_println_t_10000_199 + 0x008d)
      00074D F0               [24] 2268 	movx	@dptr,a
      00074E 90r00rDE         [24] 2269 	mov	dptr,#(_uart0_println_t_10000_199 + 0x008e)
      000751 F0               [24] 2270 	movx	@dptr,a
      000752 90r00rDF         [24] 2271 	mov	dptr,#(_uart0_println_t_10000_199 + 0x008f)
      000755 F0               [24] 2272 	movx	@dptr,a
      000756 90r00rE0         [24] 2273 	mov	dptr,#(_uart0_println_t_10000_199 + 0x0090)
      000759 F0               [24] 2274 	movx	@dptr,a
      00075A 90r00rE1         [24] 2275 	mov	dptr,#(_uart0_println_t_10000_199 + 0x0091)
      00075D F0               [24] 2276 	movx	@dptr,a
      00075E 90r00rE2         [24] 2277 	mov	dptr,#(_uart0_println_t_10000_199 + 0x0092)
      000761 F0               [24] 2278 	movx	@dptr,a
      000762 90r00rE3         [24] 2279 	mov	dptr,#(_uart0_println_t_10000_199 + 0x0093)
      000765 F0               [24] 2280 	movx	@dptr,a
      000766 90r00rE4         [24] 2281 	mov	dptr,#(_uart0_println_t_10000_199 + 0x0094)
      000769 F0               [24] 2282 	movx	@dptr,a
      00076A 90r00rE5         [24] 2283 	mov	dptr,#(_uart0_println_t_10000_199 + 0x0095)
      00076D F0               [24] 2284 	movx	@dptr,a
      00076E 90r00rE6         [24] 2285 	mov	dptr,#(_uart0_println_t_10000_199 + 0x0096)
      000771 F0               [24] 2286 	movx	@dptr,a
      000772 90r00rE7         [24] 2287 	mov	dptr,#(_uart0_println_t_10000_199 + 0x0097)
      000775 F0               [24] 2288 	movx	@dptr,a
      000776 90r00rE8         [24] 2289 	mov	dptr,#(_uart0_println_t_10000_199 + 0x0098)
      000779 F0               [24] 2290 	movx	@dptr,a
      00077A 90r00rE9         [24] 2291 	mov	dptr,#(_uart0_println_t_10000_199 + 0x0099)
      00077D F0               [24] 2292 	movx	@dptr,a
      00077E 90r00rEA         [24] 2293 	mov	dptr,#(_uart0_println_t_10000_199 + 0x009a)
      000781 F0               [24] 2294 	movx	@dptr,a
      000782 90r00rEB         [24] 2295 	mov	dptr,#(_uart0_println_t_10000_199 + 0x009b)
      000785 F0               [24] 2296 	movx	@dptr,a
      000786 90r00rEC         [24] 2297 	mov	dptr,#(_uart0_println_t_10000_199 + 0x009c)
      000789 F0               [24] 2298 	movx	@dptr,a
      00078A 90r00rED         [24] 2299 	mov	dptr,#(_uart0_println_t_10000_199 + 0x009d)
      00078D F0               [24] 2300 	movx	@dptr,a
      00078E 90r00rEE         [24] 2301 	mov	dptr,#(_uart0_println_t_10000_199 + 0x009e)
      000791 F0               [24] 2302 	movx	@dptr,a
      000792 90r00rEF         [24] 2303 	mov	dptr,#(_uart0_println_t_10000_199 + 0x009f)
      000795 F0               [24] 2304 	movx	@dptr,a
      000796 90r00rF0         [24] 2305 	mov	dptr,#(_uart0_println_t_10000_199 + 0x00a0)
      000799 F0               [24] 2306 	movx	@dptr,a
      00079A 90r00rF1         [24] 2307 	mov	dptr,#(_uart0_println_t_10000_199 + 0x00a1)
      00079D F0               [24] 2308 	movx	@dptr,a
      00079E 90r00rF2         [24] 2309 	mov	dptr,#(_uart0_println_t_10000_199 + 0x00a2)
      0007A1 F0               [24] 2310 	movx	@dptr,a
      0007A2 90r00rF3         [24] 2311 	mov	dptr,#(_uart0_println_t_10000_199 + 0x00a3)
      0007A5 F0               [24] 2312 	movx	@dptr,a
      0007A6 90r00rF4         [24] 2313 	mov	dptr,#(_uart0_println_t_10000_199 + 0x00a4)
      0007A9 F0               [24] 2314 	movx	@dptr,a
      0007AA 90r00rF5         [24] 2315 	mov	dptr,#(_uart0_println_t_10000_199 + 0x00a5)
      0007AD F0               [24] 2316 	movx	@dptr,a
      0007AE 90r00rF6         [24] 2317 	mov	dptr,#(_uart0_println_t_10000_199 + 0x00a6)
      0007B1 F0               [24] 2318 	movx	@dptr,a
      0007B2 90r00rF7         [24] 2319 	mov	dptr,#(_uart0_println_t_10000_199 + 0x00a7)
      0007B5 F0               [24] 2320 	movx	@dptr,a
      0007B6 90r00rF8         [24] 2321 	mov	dptr,#(_uart0_println_t_10000_199 + 0x00a8)
      0007B9 F0               [24] 2322 	movx	@dptr,a
      0007BA 90r00rF9         [24] 2323 	mov	dptr,#(_uart0_println_t_10000_199 + 0x00a9)
      0007BD F0               [24] 2324 	movx	@dptr,a
      0007BE 90r00rFA         [24] 2325 	mov	dptr,#(_uart0_println_t_10000_199 + 0x00aa)
      0007C1 F0               [24] 2326 	movx	@dptr,a
      0007C2 90r00rFB         [24] 2327 	mov	dptr,#(_uart0_println_t_10000_199 + 0x00ab)
      0007C5 F0               [24] 2328 	movx	@dptr,a
      0007C6 90r00rFC         [24] 2329 	mov	dptr,#(_uart0_println_t_10000_199 + 0x00ac)
      0007C9 F0               [24] 2330 	movx	@dptr,a
      0007CA 90r00rFD         [24] 2331 	mov	dptr,#(_uart0_println_t_10000_199 + 0x00ad)
      0007CD F0               [24] 2332 	movx	@dptr,a
      0007CE 90r00rFE         [24] 2333 	mov	dptr,#(_uart0_println_t_10000_199 + 0x00ae)
      0007D1 F0               [24] 2334 	movx	@dptr,a
      0007D2 90r00rFF         [24] 2335 	mov	dptr,#(_uart0_println_t_10000_199 + 0x00af)
      0007D5 F0               [24] 2336 	movx	@dptr,a
      0007D6 90r01r00         [24] 2337 	mov	dptr,#(_uart0_println_t_10000_199 + 0x00b0)
      0007D9 F0               [24] 2338 	movx	@dptr,a
      0007DA 90r01r01         [24] 2339 	mov	dptr,#(_uart0_println_t_10000_199 + 0x00b1)
      0007DD F0               [24] 2340 	movx	@dptr,a
      0007DE 90r01r02         [24] 2341 	mov	dptr,#(_uart0_println_t_10000_199 + 0x00b2)
      0007E1 F0               [24] 2342 	movx	@dptr,a
      0007E2 90r01r03         [24] 2343 	mov	dptr,#(_uart0_println_t_10000_199 + 0x00b3)
      0007E5 F0               [24] 2344 	movx	@dptr,a
      0007E6 90r01r04         [24] 2345 	mov	dptr,#(_uart0_println_t_10000_199 + 0x00b4)
      0007E9 F0               [24] 2346 	movx	@dptr,a
      0007EA 90r01r05         [24] 2347 	mov	dptr,#(_uart0_println_t_10000_199 + 0x00b5)
      0007ED F0               [24] 2348 	movx	@dptr,a
      0007EE 90r01r06         [24] 2349 	mov	dptr,#(_uart0_println_t_10000_199 + 0x00b6)
      0007F1 F0               [24] 2350 	movx	@dptr,a
      0007F2 90r01r07         [24] 2351 	mov	dptr,#(_uart0_println_t_10000_199 + 0x00b7)
      0007F5 F0               [24] 2352 	movx	@dptr,a
      0007F6 90r01r08         [24] 2353 	mov	dptr,#(_uart0_println_t_10000_199 + 0x00b8)
      0007F9 F0               [24] 2354 	movx	@dptr,a
      0007FA 90r01r09         [24] 2355 	mov	dptr,#(_uart0_println_t_10000_199 + 0x00b9)
      0007FD F0               [24] 2356 	movx	@dptr,a
      0007FE 90r01r0A         [24] 2357 	mov	dptr,#(_uart0_println_t_10000_199 + 0x00ba)
      000801 F0               [24] 2358 	movx	@dptr,a
      000802 90r01r0B         [24] 2359 	mov	dptr,#(_uart0_println_t_10000_199 + 0x00bb)
      000805 F0               [24] 2360 	movx	@dptr,a
      000806 90r01r0C         [24] 2361 	mov	dptr,#(_uart0_println_t_10000_199 + 0x00bc)
      000809 F0               [24] 2362 	movx	@dptr,a
      00080A 90r01r0D         [24] 2363 	mov	dptr,#(_uart0_println_t_10000_199 + 0x00bd)
      00080D F0               [24] 2364 	movx	@dptr,a
      00080E 90r01r0E         [24] 2365 	mov	dptr,#(_uart0_println_t_10000_199 + 0x00be)
      000811 F0               [24] 2366 	movx	@dptr,a
      000812 90r01r0F         [24] 2367 	mov	dptr,#(_uart0_println_t_10000_199 + 0x00bf)
      000815 F0               [24] 2368 	movx	@dptr,a
      000816 90r01r10         [24] 2369 	mov	dptr,#(_uart0_println_t_10000_199 + 0x00c0)
      000819 F0               [24] 2370 	movx	@dptr,a
      00081A 90r01r11         [24] 2371 	mov	dptr,#(_uart0_println_t_10000_199 + 0x00c1)
      00081D F0               [24] 2372 	movx	@dptr,a
      00081E 90r01r12         [24] 2373 	mov	dptr,#(_uart0_println_t_10000_199 + 0x00c2)
      000821 F0               [24] 2374 	movx	@dptr,a
      000822 90r01r13         [24] 2375 	mov	dptr,#(_uart0_println_t_10000_199 + 0x00c3)
      000825 F0               [24] 2376 	movx	@dptr,a
      000826 90r01r14         [24] 2377 	mov	dptr,#(_uart0_println_t_10000_199 + 0x00c4)
      000829 F0               [24] 2378 	movx	@dptr,a
      00082A 90r01r15         [24] 2379 	mov	dptr,#(_uart0_println_t_10000_199 + 0x00c5)
      00082D F0               [24] 2380 	movx	@dptr,a
      00082E 90r01r16         [24] 2381 	mov	dptr,#(_uart0_println_t_10000_199 + 0x00c6)
      000831 F0               [24] 2382 	movx	@dptr,a
      000832 90r01r17         [24] 2383 	mov	dptr,#(_uart0_println_t_10000_199 + 0x00c7)
      000835 F0               [24] 2384 	movx	@dptr,a
      000836 90r01r18         [24] 2385 	mov	dptr,#(_uart0_println_t_10000_199 + 0x00c8)
      000839 F0               [24] 2386 	movx	@dptr,a
      00083A 90r01r19         [24] 2387 	mov	dptr,#(_uart0_println_t_10000_199 + 0x00c9)
      00083D F0               [24] 2388 	movx	@dptr,a
      00083E 90r01r1A         [24] 2389 	mov	dptr,#(_uart0_println_t_10000_199 + 0x00ca)
      000841 F0               [24] 2390 	movx	@dptr,a
      000842 90r01r1B         [24] 2391 	mov	dptr,#(_uart0_println_t_10000_199 + 0x00cb)
      000845 F0               [24] 2392 	movx	@dptr,a
      000846 90r01r1C         [24] 2393 	mov	dptr,#(_uart0_println_t_10000_199 + 0x00cc)
      000849 F0               [24] 2394 	movx	@dptr,a
      00084A 90r01r1D         [24] 2395 	mov	dptr,#(_uart0_println_t_10000_199 + 0x00cd)
      00084D F0               [24] 2396 	movx	@dptr,a
      00084E 90r01r1E         [24] 2397 	mov	dptr,#(_uart0_println_t_10000_199 + 0x00ce)
      000851 F0               [24] 2398 	movx	@dptr,a
      000852 90r01r1F         [24] 2399 	mov	dptr,#(_uart0_println_t_10000_199 + 0x00cf)
      000855 F0               [24] 2400 	movx	@dptr,a
      000856 90r01r20         [24] 2401 	mov	dptr,#(_uart0_println_t_10000_199 + 0x00d0)
      000859 F0               [24] 2402 	movx	@dptr,a
      00085A 90r01r21         [24] 2403 	mov	dptr,#(_uart0_println_t_10000_199 + 0x00d1)
      00085D F0               [24] 2404 	movx	@dptr,a
      00085E 90r01r22         [24] 2405 	mov	dptr,#(_uart0_println_t_10000_199 + 0x00d2)
      000861 F0               [24] 2406 	movx	@dptr,a
      000862 90r01r23         [24] 2407 	mov	dptr,#(_uart0_println_t_10000_199 + 0x00d3)
      000865 F0               [24] 2408 	movx	@dptr,a
      000866 90r01r24         [24] 2409 	mov	dptr,#(_uart0_println_t_10000_199 + 0x00d4)
      000869 F0               [24] 2410 	movx	@dptr,a
      00086A 90r01r25         [24] 2411 	mov	dptr,#(_uart0_println_t_10000_199 + 0x00d5)
      00086D F0               [24] 2412 	movx	@dptr,a
      00086E 90r01r26         [24] 2413 	mov	dptr,#(_uart0_println_t_10000_199 + 0x00d6)
      000871 F0               [24] 2414 	movx	@dptr,a
      000872 90r01r27         [24] 2415 	mov	dptr,#(_uart0_println_t_10000_199 + 0x00d7)
      000875 F0               [24] 2416 	movx	@dptr,a
      000876 90r01r28         [24] 2417 	mov	dptr,#(_uart0_println_t_10000_199 + 0x00d8)
      000879 F0               [24] 2418 	movx	@dptr,a
      00087A 90r01r29         [24] 2419 	mov	dptr,#(_uart0_println_t_10000_199 + 0x00d9)
      00087D F0               [24] 2420 	movx	@dptr,a
      00087E 90r01r2A         [24] 2421 	mov	dptr,#(_uart0_println_t_10000_199 + 0x00da)
      000881 F0               [24] 2422 	movx	@dptr,a
      000882 90r01r2B         [24] 2423 	mov	dptr,#(_uart0_println_t_10000_199 + 0x00db)
      000885 F0               [24] 2424 	movx	@dptr,a
      000886 90r01r2C         [24] 2425 	mov	dptr,#(_uart0_println_t_10000_199 + 0x00dc)
      000889 F0               [24] 2426 	movx	@dptr,a
      00088A 90r01r2D         [24] 2427 	mov	dptr,#(_uart0_println_t_10000_199 + 0x00dd)
      00088D F0               [24] 2428 	movx	@dptr,a
      00088E 90r01r2E         [24] 2429 	mov	dptr,#(_uart0_println_t_10000_199 + 0x00de)
      000891 F0               [24] 2430 	movx	@dptr,a
      000892 90r01r2F         [24] 2431 	mov	dptr,#(_uart0_println_t_10000_199 + 0x00df)
      000895 F0               [24] 2432 	movx	@dptr,a
      000896 90r01r30         [24] 2433 	mov	dptr,#(_uart0_println_t_10000_199 + 0x00e0)
      000899 F0               [24] 2434 	movx	@dptr,a
      00089A 90r01r31         [24] 2435 	mov	dptr,#(_uart0_println_t_10000_199 + 0x00e1)
      00089D F0               [24] 2436 	movx	@dptr,a
      00089E 90r01r32         [24] 2437 	mov	dptr,#(_uart0_println_t_10000_199 + 0x00e2)
      0008A1 F0               [24] 2438 	movx	@dptr,a
      0008A2 90r01r33         [24] 2439 	mov	dptr,#(_uart0_println_t_10000_199 + 0x00e3)
      0008A5 F0               [24] 2440 	movx	@dptr,a
      0008A6 90r01r34         [24] 2441 	mov	dptr,#(_uart0_println_t_10000_199 + 0x00e4)
      0008A9 F0               [24] 2442 	movx	@dptr,a
      0008AA 90r01r35         [24] 2443 	mov	dptr,#(_uart0_println_t_10000_199 + 0x00e5)
      0008AD F0               [24] 2444 	movx	@dptr,a
      0008AE 90r01r36         [24] 2445 	mov	dptr,#(_uart0_println_t_10000_199 + 0x00e6)
      0008B1 F0               [24] 2446 	movx	@dptr,a
      0008B2 90r01r37         [24] 2447 	mov	dptr,#(_uart0_println_t_10000_199 + 0x00e7)
      0008B5 F0               [24] 2448 	movx	@dptr,a
      0008B6 90r01r38         [24] 2449 	mov	dptr,#(_uart0_println_t_10000_199 + 0x00e8)
      0008B9 F0               [24] 2450 	movx	@dptr,a
      0008BA 90r01r39         [24] 2451 	mov	dptr,#(_uart0_println_t_10000_199 + 0x00e9)
      0008BD F0               [24] 2452 	movx	@dptr,a
      0008BE 90r01r3A         [24] 2453 	mov	dptr,#(_uart0_println_t_10000_199 + 0x00ea)
      0008C1 F0               [24] 2454 	movx	@dptr,a
      0008C2 90r01r3B         [24] 2455 	mov	dptr,#(_uart0_println_t_10000_199 + 0x00eb)
      0008C5 F0               [24] 2456 	movx	@dptr,a
      0008C6 90r01r3C         [24] 2457 	mov	dptr,#(_uart0_println_t_10000_199 + 0x00ec)
      0008C9 F0               [24] 2458 	movx	@dptr,a
      0008CA 90r01r3D         [24] 2459 	mov	dptr,#(_uart0_println_t_10000_199 + 0x00ed)
      0008CD F0               [24] 2460 	movx	@dptr,a
      0008CE 90r01r3E         [24] 2461 	mov	dptr,#(_uart0_println_t_10000_199 + 0x00ee)
      0008D1 F0               [24] 2462 	movx	@dptr,a
      0008D2 90r01r3F         [24] 2463 	mov	dptr,#(_uart0_println_t_10000_199 + 0x00ef)
      0008D5 F0               [24] 2464 	movx	@dptr,a
      0008D6 90r01r40         [24] 2465 	mov	dptr,#(_uart0_println_t_10000_199 + 0x00f0)
      0008D9 F0               [24] 2466 	movx	@dptr,a
      0008DA 90r01r41         [24] 2467 	mov	dptr,#(_uart0_println_t_10000_199 + 0x00f1)
      0008DD F0               [24] 2468 	movx	@dptr,a
      0008DE 90r01r42         [24] 2469 	mov	dptr,#(_uart0_println_t_10000_199 + 0x00f2)
      0008E1 F0               [24] 2470 	movx	@dptr,a
      0008E2 90r01r43         [24] 2471 	mov	dptr,#(_uart0_println_t_10000_199 + 0x00f3)
      0008E5 F0               [24] 2472 	movx	@dptr,a
      0008E6 90r01r44         [24] 2473 	mov	dptr,#(_uart0_println_t_10000_199 + 0x00f4)
      0008E9 F0               [24] 2474 	movx	@dptr,a
      0008EA 90r01r45         [24] 2475 	mov	dptr,#(_uart0_println_t_10000_199 + 0x00f5)
      0008ED F0               [24] 2476 	movx	@dptr,a
      0008EE 90r01r46         [24] 2477 	mov	dptr,#(_uart0_println_t_10000_199 + 0x00f6)
      0008F1 F0               [24] 2478 	movx	@dptr,a
      0008F2 90r01r47         [24] 2479 	mov	dptr,#(_uart0_println_t_10000_199 + 0x00f7)
      0008F5 F0               [24] 2480 	movx	@dptr,a
      0008F6 90r01r48         [24] 2481 	mov	dptr,#(_uart0_println_t_10000_199 + 0x00f8)
      0008F9 F0               [24] 2482 	movx	@dptr,a
      0008FA 90r01r49         [24] 2483 	mov	dptr,#(_uart0_println_t_10000_199 + 0x00f9)
      0008FD F0               [24] 2484 	movx	@dptr,a
      0008FE 90r01r4A         [24] 2485 	mov	dptr,#(_uart0_println_t_10000_199 + 0x00fa)
      000901 F0               [24] 2486 	movx	@dptr,a
      000902 90r01r4B         [24] 2487 	mov	dptr,#(_uart0_println_t_10000_199 + 0x00fb)
      000905 F0               [24] 2488 	movx	@dptr,a
      000906 90r01r4C         [24] 2489 	mov	dptr,#(_uart0_println_t_10000_199 + 0x00fc)
      000909 F0               [24] 2490 	movx	@dptr,a
      00090A 90r01r4D         [24] 2491 	mov	dptr,#(_uart0_println_t_10000_199 + 0x00fd)
      00090D F0               [24] 2492 	movx	@dptr,a
      00090E 90r01r4E         [24] 2493 	mov	dptr,#(_uart0_println_t_10000_199 + 0x00fe)
      000911 F0               [24] 2494 	movx	@dptr,a
      000912 90r01r4F         [24] 2495 	mov	dptr,#(_uart0_println_t_10000_199 + 0x00ff)
      000915 F0               [24] 2496 	movx	@dptr,a
                                   2497 ;	../Firmware/src/utils.c:455: uart0_print(data);
      000916 8D 82            [24] 2498 	mov	dpl, r5
      000918 8E 83            [24] 2499 	mov	dph, r6
      00091A 8F F0            [24] 2500 	mov	b, r7
      00091C 12r04rC0         [24] 2501 	lcall	_uart0_print
                                   2502 ;	../Firmware/src/utils.c:456: uart0_write('\r');
      00091F 75 82 0D         [24] 2503 	mov	dpl, #0x0d
      000922 12r04rB2         [24] 2504 	lcall	_uart0_write
                                   2505 ;	../Firmware/src/utils.c:457: uart0_write('\n');
      000925 75 82 0A         [24] 2506 	mov	dpl, #0x0a
                                   2507 ;	../Firmware/src/utils.c:459: }
      000928 02r04rB2         [24] 2508 	ljmp	_uart0_write
                                   2509 ;------------------------------------------------------------
                                   2510 ;Allocation info for local variables in function 'uart0_receive_byte'
                                   2511 ;------------------------------------------------------------
                                   2512 ;timeout_ms                Allocated with name '_uart0_receive_byte_PARM_2'
                                   2513 ;received_byte             Allocated to registers r5 r6 r7 
                                   2514 ;ret                       Allocated to registers r4 
                                   2515 ;_t                        Allocated to registers r2 r3 
                                   2516 ;------------------------------------------------------------
                                   2517 ;	../Firmware/src/utils.c:465: UINT8 uart0_receive_byte(UINT8 * received_byte, UINT8 timeout_ms){
                                   2518 ;	-----------------------------------------
                                   2519 ;	 function uart0_receive_byte
                                   2520 ;	-----------------------------------------
      00092B                       2521 _uart0_receive_byte:
      00092B AD 82            [24] 2522 	mov	r5, dpl
      00092D AE 83            [24] 2523 	mov	r6, dph
      00092F AF F0            [24] 2524 	mov	r7, b
                                   2525 ;	../Firmware/src/utils.c:466: UINT8 ret = 1;
      000931 7C 01            [12] 2526 	mov	r4,#0x01
                                   2527 ;	../Firmware/src/utils.c:467: for(int _t  = 0; _t < timeout_ms * 1000; _t++){
      000933 7A 00            [12] 2528 	mov	r2,#0x00
      000935 7B 00            [12] 2529 	mov	r3,#0x00
      000937                       2530 00105$:
      000937 85*05*00         [24] 2531 	mov	__mulint_PARM_2,_uart0_receive_byte_PARM_2
      00093A 75*01 00         [24] 2532 	mov	(__mulint_PARM_2 + 1),#0x00
      00093D 90 03 E8         [24] 2533 	mov	dptr,#0x03e8
      000940 C0 07            [24] 2534 	push	ar7
      000942 C0 06            [24] 2535 	push	ar6
      000944 C0 05            [24] 2536 	push	ar5
      000946 C0 04            [24] 2537 	push	ar4
      000948 C0 03            [24] 2538 	push	ar3
      00094A C0 02            [24] 2539 	push	ar2
      00094C 12r00r00         [24] 2540 	lcall	__mulint
      00094F A8 82            [24] 2541 	mov	r0, dpl
      000951 A9 83            [24] 2542 	mov	r1, dph
      000953 D0 02            [24] 2543 	pop	ar2
      000955 D0 03            [24] 2544 	pop	ar3
      000957 D0 04            [24] 2545 	pop	ar4
      000959 D0 05            [24] 2546 	pop	ar5
      00095B D0 06            [24] 2547 	pop	ar6
      00095D D0 07            [24] 2548 	pop	ar7
      00095F C3               [12] 2549 	clr	c
      000960 EA               [12] 2550 	mov	a,r2
      000961 98               [12] 2551 	subb	a,r0
      000962 EB               [12] 2552 	mov	a,r3
      000963 64 80            [12] 2553 	xrl	a,#0x80
      000965 89 F0            [24] 2554 	mov	b,r1
      000967 63 F0 80         [24] 2555 	xrl	b,#0x80
      00096A 95 F0            [12] 2556 	subb	a,b
      00096C 50 40            [24] 2557 	jnc	00103$
                                   2558 ;	../Firmware/src/utils.c:468: if ((SCON & 0x01)  == 1){
      00096E A9 98            [24] 2559 	mov	r1,_SCON
      000970 53 01 01         [24] 2560 	anl	ar1,#0x01
      000973 B9 01 12         [24] 2561 	cjne	r1,#0x01,00102$
                                   2562 ;	../Firmware/src/utils.c:469: *received_byte = SBUF;
      000976 8D 82            [24] 2563 	mov	dpl,r5
      000978 8E 83            [24] 2564 	mov	dph,r6
      00097A 8F F0            [24] 2565 	mov	b,r7
      00097C E5 99            [12] 2566 	mov	a,_SBUF
      00097E 12r00r00         [24] 2567 	lcall	__gptrput
                                   2568 ;	../Firmware/src/utils.c:470: ret = 0;
      000981 7C 00            [12] 2569 	mov	r4,#0x00
                                   2570 ;	../Firmware/src/utils.c:471: SCON &= 0xFE;
      000983 53 98 FE         [24] 2571 	anl	_SCON,#0xfe
                                   2572 ;	../Firmware/src/utils.c:472: break; 
      000986 80 26            [24] 2573 	sjmp	00103$
      000988                       2574 00102$:
                                   2575 ;	../Firmware/src/utils.c:474: delay(1);
      000988 90 00 01         [24] 2576 	mov	dptr,#0x0001
      00098B C0 07            [24] 2577 	push	ar7
      00098D C0 06            [24] 2578 	push	ar6
      00098F C0 05            [24] 2579 	push	ar5
      000991 C0 04            [24] 2580 	push	ar4
      000993 C0 03            [24] 2581 	push	ar3
      000995 C0 02            [24] 2582 	push	ar2
      000997 12r00r00         [24] 2583 	lcall	_delay
      00099A D0 02            [24] 2584 	pop	ar2
      00099C D0 03            [24] 2585 	pop	ar3
      00099E D0 04            [24] 2586 	pop	ar4
      0009A0 D0 05            [24] 2587 	pop	ar5
      0009A2 D0 06            [24] 2588 	pop	ar6
      0009A4 D0 07            [24] 2589 	pop	ar7
                                   2590 ;	../Firmware/src/utils.c:467: for(int _t  = 0; _t < timeout_ms * 1000; _t++){
      0009A6 0A               [12] 2591 	inc	r2
      0009A7 BA 00 01         [24] 2592 	cjne	r2,#0x00,00130$
      0009AA 0B               [12] 2593 	inc	r3
      0009AB                       2594 00130$:
      0009AB 02r09r37         [24] 2595 	ljmp	00105$
      0009AE                       2596 00103$:
                                   2597 ;	../Firmware/src/utils.c:477: return ret;  
      0009AE 8C 82            [24] 2598 	mov	dpl, r4
                                   2599 ;	../Firmware/src/utils.c:478: }
      0009B0 22               [24] 2600 	ret
                                   2601 ;------------------------------------------------------------
                                   2602 ;Allocation info for local variables in function 'uart0_read_bytes'
                                   2603 ;------------------------------------------------------------
                                   2604 ;max_len                   Allocated with name '_uart0_read_bytes_PARM_2'
                                   2605 ;timeout_ms                Allocated with name '_uart0_read_bytes_PARM_3'
                                   2606 ;received_bytes            Allocated with name '_uart0_read_bytes_received_bytes_10000_205'
                                   2607 ;ret                       Allocated to registers r1 r2 
                                   2608 ;current_recv              Allocated with name '_uart0_read_bytes_current_recv_10000_206'
                                   2609 ;------------------------------------------------------------
                                   2610 ;	../Firmware/src/utils.c:485: int uart0_read_bytes(UINT8 * received_bytes,int max_len, UINT8 timeout_ms){
                                   2611 ;	-----------------------------------------
                                   2612 ;	 function uart0_read_bytes
                                   2613 ;	-----------------------------------------
      0009B1                       2614 _uart0_read_bytes:
      0009B1 85 82*09         [24] 2615 	mov	_uart0_read_bytes_received_bytes_10000_205,dpl
      0009B4 85 83*0A         [24] 2616 	mov	(_uart0_read_bytes_received_bytes_10000_205 + 1),dph
      0009B7 85 F0*0B         [24] 2617 	mov	(_uart0_read_bytes_received_bytes_10000_205 + 2),b
                                   2618 ;	../Firmware/src/utils.c:488: while (uart0_receive_byte(&current_recv, timeout_ms) == 0){
      0009BA E5*06            [12] 2619 	mov	a,_uart0_read_bytes_PARM_2
      0009BC 24 FF            [12] 2620 	add	a,#0xff
      0009BE FB               [12] 2621 	mov	r3,a
      0009BF E5*07            [12] 2622 	mov	a,(_uart0_read_bytes_PARM_2 + 1)
      0009C1 34 FF            [12] 2623 	addc	a,#0xff
      0009C3 FC               [12] 2624 	mov	r4,a
      0009C4 79 00            [12] 2625 	mov	r1,#0x00
      0009C6 7A 00            [12] 2626 	mov	r2,#0x00
      0009C8                       2627 00103$:
      0009C8 85*08*05         [24] 2628 	mov	_uart0_receive_byte_PARM_2,_uart0_read_bytes_PARM_3
      0009CB 90r00r0C         [24] 2629 	mov	dptr,#_uart0_read_bytes_current_recv_10000_206
      0009CE 75 F0 40         [24] 2630 	mov	b, #0x40
      0009D1 C0 04            [24] 2631 	push	ar4
      0009D3 C0 03            [24] 2632 	push	ar3
      0009D5 C0 02            [24] 2633 	push	ar2
      0009D7 C0 01            [24] 2634 	push	ar1
      0009D9 12r09r2B         [24] 2635 	lcall	_uart0_receive_byte
      0009DC E5 82            [12] 2636 	mov	a, dpl
      0009DE D0 01            [24] 2637 	pop	ar1
      0009E0 D0 02            [24] 2638 	pop	ar2
      0009E2 D0 03            [24] 2639 	pop	ar3
      0009E4 D0 04            [24] 2640 	pop	ar4
      0009E6 70 26            [24] 2641 	jnz	00105$
                                   2642 ;	../Firmware/src/utils.c:489: if(ret == max_len - 1){
      0009E8 E9               [12] 2643 	mov	a,r1
      0009E9 B5 03 06         [24] 2644 	cjne	a,ar3,00128$
      0009EC EA               [12] 2645 	mov	a,r2
      0009ED B5 04 02         [24] 2646 	cjne	a,ar4,00128$
      0009F0 80 1C            [24] 2647 	sjmp	00105$
      0009F2                       2648 00128$:
                                   2649 ;	../Firmware/src/utils.c:492: received_bytes[ret++] = current_recv;
      0009F2 E9               [12] 2650 	mov	a,r1
      0009F3 25*09            [12] 2651 	add	a, _uart0_read_bytes_received_bytes_10000_205
      0009F5 F8               [12] 2652 	mov	r0,a
      0009F6 EA               [12] 2653 	mov	a,r2
      0009F7 35*0A            [12] 2654 	addc	a, (_uart0_read_bytes_received_bytes_10000_205 + 1)
      0009F9 FE               [12] 2655 	mov	r6,a
      0009FA AF*0B            [24] 2656 	mov	r7,(_uart0_read_bytes_received_bytes_10000_205 + 2)
      0009FC 09               [12] 2657 	inc	r1
      0009FD B9 00 01         [24] 2658 	cjne	r1,#0x00,00129$
      000A00 0A               [12] 2659 	inc	r2
      000A01                       2660 00129$:
      000A01 88 82            [24] 2661 	mov	dpl,r0
      000A03 8E 83            [24] 2662 	mov	dph,r6
      000A05 8F F0            [24] 2663 	mov	b,r7
      000A07 E5*0C            [12] 2664 	mov	a,_uart0_read_bytes_current_recv_10000_206
      000A09 12r00r00         [24] 2665 	lcall	__gptrput
      000A0C 80 BA            [24] 2666 	sjmp	00103$
      000A0E                       2667 00105$:
                                   2668 ;	../Firmware/src/utils.c:495: return ret;  
      000A0E 89 82            [24] 2669 	mov	dpl, r1
      000A10 8A 83            [24] 2670 	mov	dph, r2
                                   2671 ;	../Firmware/src/utils.c:496: }
      000A12 22               [24] 2672 	ret
                                   2673 ;------------------------------------------------------------
                                   2674 ;Allocation info for local variables in function 'uart0_read_string_until'
                                   2675 ;------------------------------------------------------------
                                   2676 ;max_len                   Allocated with name '_uart0_read_string_until_PARM_2'
                                   2677 ;timeout_ms                Allocated with name '_uart0_read_string_until_PARM_3'
                                   2678 ;condition                 Allocated with name '_uart0_read_string_until_PARM_4'
                                   2679 ;received_bytes            Allocated to registers r5 r6 r7 
                                   2680 ;ret                       Allocated to registers r3 r4 
                                   2681 ;current_recv              Allocated with name '_uart0_read_string_until_current_recv_10000_210'
                                   2682 ;------------------------------------------------------------
                                   2683 ;	../Firmware/src/utils.c:504: int uart0_read_string_until(UINT8 * received_bytes,int max_len, UINT8 timeout_ms, UINT8 condition){
                                   2684 ;	-----------------------------------------
                                   2685 ;	 function uart0_read_string_until
                                   2686 ;	-----------------------------------------
      000A13                       2687 _uart0_read_string_until:
      000A13 AD 82            [24] 2688 	mov	r5, dpl
      000A15 AE 83            [24] 2689 	mov	r6, dph
      000A17 AF F0            [24] 2690 	mov	r7, b
                                   2691 ;	../Firmware/src/utils.c:507: do{
      000A19 7B 00            [12] 2692 	mov	r3,#0x00
      000A1B 7C 00            [12] 2693 	mov	r4,#0x00
      000A1D                       2694 00105$:
                                   2695 ;	../Firmware/src/utils.c:508: if(uart0_receive_byte(&current_recv, timeout_ms) != 0)
      000A1D 85*0F*05         [24] 2696 	mov	_uart0_receive_byte_PARM_2,_uart0_read_string_until_PARM_3
      000A20 90r00r11         [24] 2697 	mov	dptr,#_uart0_read_string_until_current_recv_10000_210
      000A23 75 F0 40         [24] 2698 	mov	b, #0x40
      000A26 C0 07            [24] 2699 	push	ar7
      000A28 C0 06            [24] 2700 	push	ar6
      000A2A C0 05            [24] 2701 	push	ar5
      000A2C C0 04            [24] 2702 	push	ar4
      000A2E C0 03            [24] 2703 	push	ar3
      000A30 12r09r2B         [24] 2704 	lcall	_uart0_receive_byte
      000A33 E5 82            [12] 2705 	mov	a, dpl
      000A35 D0 03            [24] 2706 	pop	ar3
      000A37 D0 04            [24] 2707 	pop	ar4
      000A39 D0 05            [24] 2708 	pop	ar5
      000A3B D0 06            [24] 2709 	pop	ar6
      000A3D D0 07            [24] 2710 	pop	ar7
      000A3F 70 30            [24] 2711 	jnz	00107$
                                   2712 ;	../Firmware/src/utils.c:511: if(current_recv == condition){
      000A41 E5*10            [12] 2713 	mov	a,_uart0_read_string_until_PARM_4
      000A43 B5*11 02         [24] 2714 	cjne	a,_uart0_read_string_until_current_recv_10000_210,00130$
      000A46 80 29            [24] 2715 	sjmp	00107$
      000A48                       2716 00130$:
                                   2717 ;	../Firmware/src/utils.c:514: received_bytes[ret++] = current_recv;
      000A48 EB               [12] 2718 	mov	a,r3
      000A49 2D               [12] 2719 	add	a, r5
      000A4A F8               [12] 2720 	mov	r0,a
      000A4B EC               [12] 2721 	mov	a,r4
      000A4C 3E               [12] 2722 	addc	a, r6
      000A4D F9               [12] 2723 	mov	r1,a
      000A4E 8F 02            [24] 2724 	mov	ar2,r7
      000A50 0B               [12] 2725 	inc	r3
      000A51 BB 00 01         [24] 2726 	cjne	r3,#0x00,00131$
      000A54 0C               [12] 2727 	inc	r4
      000A55                       2728 00131$:
      000A55 88 82            [24] 2729 	mov	dpl,r0
      000A57 89 83            [24] 2730 	mov	dph,r1
      000A59 8A F0            [24] 2731 	mov	b,r2
      000A5B E5*11            [12] 2732 	mov	a,_uart0_read_string_until_current_recv_10000_210
      000A5D 12r00r00         [24] 2733 	lcall	__gptrput
                                   2734 ;	../Firmware/src/utils.c:515: }while (ret < max_len);
      000A60 C3               [12] 2735 	clr	c
      000A61 EB               [12] 2736 	mov	a,r3
      000A62 95*0D            [12] 2737 	subb	a,_uart0_read_string_until_PARM_2
      000A64 EC               [12] 2738 	mov	a,r4
      000A65 64 80            [12] 2739 	xrl	a,#0x80
      000A67 85*0E F0         [24] 2740 	mov	b,(_uart0_read_string_until_PARM_2 + 1)
      000A6A 63 F0 80         [24] 2741 	xrl	b,#0x80
      000A6D 95 F0            [12] 2742 	subb	a,b
      000A6F 40 AC            [24] 2743 	jc	00105$
      000A71                       2744 00107$:
                                   2745 ;	../Firmware/src/utils.c:517: received_bytes[ret] = '\0';
      000A71 EB               [12] 2746 	mov	a,r3
      000A72 2D               [12] 2747 	add	a, r5
      000A73 FD               [12] 2748 	mov	r5,a
      000A74 EC               [12] 2749 	mov	a,r4
      000A75 3E               [12] 2750 	addc	a, r6
      000A76 FE               [12] 2751 	mov	r6,a
      000A77 8D 82            [24] 2752 	mov	dpl,r5
      000A79 8E 83            [24] 2753 	mov	dph,r6
      000A7B 8F F0            [24] 2754 	mov	b,r7
      000A7D E4               [12] 2755 	clr	a
      000A7E 12r00r00         [24] 2756 	lcall	__gptrput
                                   2757 ;	../Firmware/src/utils.c:518: return ret;
      000A81 8B 82            [24] 2758 	mov	dpl, r3
      000A83 8C 83            [24] 2759 	mov	dph, r4
                                   2760 ;	../Firmware/src/utils.c:519: }
      000A85 22               [24] 2761 	ret
                                   2762 ;------------------------------------------------------------
                                   2763 ;Allocation info for local variables in function 'search_str'
                                   2764 ;------------------------------------------------------------
                                   2765 ;str                       Allocated with name '_search_str_PARM_2'
                                   2766 ;base                      Allocated with name '_search_str_base_10000_213'
                                   2767 ;base_len                  Allocated with name '_search_str_base_len_10001_215'
                                   2768 ;str_len                   Allocated with name '_search_str_str_len_10001_215'
                                   2769 ;i                         Allocated with name '_search_str_i_20001_216'
                                   2770 ;j                         Allocated to registers r5 r6 
                                   2771 ;sloc0                     Allocated with name '_search_str_sloc0_1_0'
                                   2772 ;------------------------------------------------------------
                                   2773 ;	../Firmware/src/utils.c:526: int search_str(char *base, char *str) {
                                   2774 ;	-----------------------------------------
                                   2775 ;	 function search_str
                                   2776 ;	-----------------------------------------
      000A86                       2777 _search_str:
      000A86 85 82*15         [24] 2778 	mov	_search_str_base_10000_213,dpl
      000A89 85 83*16         [24] 2779 	mov	(_search_str_base_10000_213 + 1),dph
      000A8C 85 F0*17         [24] 2780 	mov	(_search_str_base_10000_213 + 2),b
                                   2781 ;	../Firmware/src/utils.c:527: if (base == NULL || str == NULL) return -1;
      000A8F E5*15            [12] 2782 	mov	a,_search_str_base_10000_213
      000A91 45*16            [12] 2783 	orl	a,(_search_str_base_10000_213 + 1)
      000A93 60 06            [24] 2784 	jz	00101$
      000A95 E5*12            [12] 2785 	mov	a,_search_str_PARM_2
      000A97 45*13            [12] 2786 	orl	a,(_search_str_PARM_2 + 1)
      000A99 70 04            [24] 2787 	jnz	00102$
      000A9B                       2788 00101$:
      000A9B 90 FF FF         [24] 2789 	mov	dptr,#0xffff
      000A9E 22               [24] 2790 	ret
      000A9F                       2791 00102$:
                                   2792 ;	../Firmware/src/utils.c:529: int base_len = strlen(base);
      000A9F 85*15 82         [24] 2793 	mov	dpl, _search_str_base_10000_213
      000AA2 85*16 83         [24] 2794 	mov	dph, (_search_str_base_10000_213 + 1)
      000AA5 85*17 F0         [24] 2795 	mov	b, (_search_str_base_10000_213 + 2)
      000AA8 12r00r00         [24] 2796 	lcall	_strlen
      000AAB 85 82*18         [24] 2797 	mov	_search_str_base_len_10001_215,dpl
      000AAE 85 83*19         [24] 2798 	mov	(_search_str_base_len_10001_215 + 1),dph
                                   2799 ;	../Firmware/src/utils.c:530: int str_len = strlen(str);
      000AB1 85*12 82         [24] 2800 	mov	dpl, _search_str_PARM_2
      000AB4 85*13 83         [24] 2801 	mov	dph, (_search_str_PARM_2 + 1)
      000AB7 85*14 F0         [24] 2802 	mov	b, (_search_str_PARM_2 + 2)
      000ABA 12r00r00         [24] 2803 	lcall	_strlen
      000ABD 85 82*1A         [24] 2804 	mov	_search_str_str_len_10001_215,dpl
      000AC0 85 83*1B         [24] 2805 	mov	(_search_str_str_len_10001_215 + 1),dph
                                   2806 ;	../Firmware/src/utils.c:532: if (str_len == 0) return -1;
      000AC3 E5*1A            [12] 2807 	mov	a,_search_str_str_len_10001_215
      000AC5 45*1B            [12] 2808 	orl	a,(_search_str_str_len_10001_215 + 1)
      000AC7 70 04            [24] 2809 	jnz	00105$
      000AC9 90 FF FF         [24] 2810 	mov	dptr,#0xffff
      000ACC 22               [24] 2811 	ret
      000ACD                       2812 00105$:
                                   2813 ;	../Firmware/src/utils.c:534: for (int i = 0; i <= base_len - str_len; i++) {
      000ACD E4               [12] 2814 	clr	a
      000ACE F8               [12] 2815 	mov	r0,a
      000ACF FC               [12] 2816 	mov	r4,a
      000AD0 E5*18            [12] 2817 	mov	a,_search_str_base_len_10001_215
      000AD2 C3               [12] 2818 	clr	c
      000AD3 95*1A            [12] 2819 	subb	a,_search_str_str_len_10001_215
      000AD5 F5*1E            [12] 2820 	mov	_search_str_sloc0_1_0,a
      000AD7 E5*19            [12] 2821 	mov	a,(_search_str_base_len_10001_215 + 1)
      000AD9 95*1B            [12] 2822 	subb	a,(_search_str_str_len_10001_215 + 1)
      000ADB F5*1F            [12] 2823 	mov	(_search_str_sloc0_1_0 + 1),a
      000ADD E4               [12] 2824 	clr	a
      000ADE F5*1C            [12] 2825 	mov	_search_str_i_20001_216,a
      000AE0 F5*1D            [12] 2826 	mov	(_search_str_i_20001_216 + 1),a
      000AE2                       2827 00114$:
      000AE2 C3               [12] 2828 	clr	c
      000AE3 E5*1E            [12] 2829 	mov	a,_search_str_sloc0_1_0
      000AE5 95*1C            [12] 2830 	subb	a,_search_str_i_20001_216
      000AE7 E5*1F            [12] 2831 	mov	a,(_search_str_sloc0_1_0 + 1)
      000AE9 64 80            [12] 2832 	xrl	a,#0x80
      000AEB 85*1D F0         [24] 2833 	mov	b,(_search_str_i_20001_216 + 1)
      000AEE 63 F0 80         [24] 2834 	xrl	b,#0x80
      000AF1 95 F0            [12] 2835 	subb	a,b
      000AF3 40 6B            [24] 2836 	jc	00112$
                                   2837 ;	../Firmware/src/utils.c:536: while (j < str_len && base[i + j] == str[j]) {
      000AF5 7D 00            [12] 2838 	mov	r5,#0x00
      000AF7 7E 00            [12] 2839 	mov	r6,#0x00
      000AF9                       2840 00107$:
      000AF9 C3               [12] 2841 	clr	c
      000AFA ED               [12] 2842 	mov	a,r5
      000AFB 95*1A            [12] 2843 	subb	a,_search_str_str_len_10001_215
      000AFD EE               [12] 2844 	mov	a,r6
      000AFE 64 80            [12] 2845 	xrl	a,#0x80
      000B00 85*1B F0         [24] 2846 	mov	b,(_search_str_str_len_10001_215 + 1)
      000B03 63 F0 80         [24] 2847 	xrl	b,#0x80
      000B06 95 F0            [12] 2848 	subb	a,b
      000B08 50 3B            [24] 2849 	jnc	00109$
      000B0A ED               [12] 2850 	mov	a,r5
      000B0B 25*1C            [12] 2851 	add	a, _search_str_i_20001_216
      000B0D F9               [12] 2852 	mov	r1,a
      000B0E EE               [12] 2853 	mov	a,r6
      000B0F 35*1D            [12] 2854 	addc	a, (_search_str_i_20001_216 + 1)
      000B11 FA               [12] 2855 	mov	r2,a
      000B12 E9               [12] 2856 	mov	a,r1
      000B13 25*15            [12] 2857 	add	a, _search_str_base_10000_213
      000B15 F9               [12] 2858 	mov	r1,a
      000B16 EA               [12] 2859 	mov	a,r2
      000B17 35*16            [12] 2860 	addc	a, (_search_str_base_10000_213 + 1)
      000B19 FA               [12] 2861 	mov	r2,a
      000B1A AF*17            [24] 2862 	mov	r7,(_search_str_base_10000_213 + 2)
      000B1C 89 82            [24] 2863 	mov	dpl,r1
      000B1E 8A 83            [24] 2864 	mov	dph,r2
      000B20 8F F0            [24] 2865 	mov	b,r7
      000B22 12r00r00         [24] 2866 	lcall	__gptrget
      000B25 F9               [12] 2867 	mov	r1,a
      000B26 ED               [12] 2868 	mov	a,r5
      000B27 25*12            [12] 2869 	add	a, _search_str_PARM_2
      000B29 FA               [12] 2870 	mov	r2,a
      000B2A EE               [12] 2871 	mov	a,r6
      000B2B 35*13            [12] 2872 	addc	a, (_search_str_PARM_2 + 1)
      000B2D FB               [12] 2873 	mov	r3,a
      000B2E AF*14            [24] 2874 	mov	r7,(_search_str_PARM_2 + 2)
      000B30 8A 82            [24] 2875 	mov	dpl,r2
      000B32 8B 83            [24] 2876 	mov	dph,r3
      000B34 8F F0            [24] 2877 	mov	b,r7
      000B36 12r00r00         [24] 2878 	lcall	__gptrget
      000B39 FA               [12] 2879 	mov	r2,a
      000B3A E9               [12] 2880 	mov	a,r1
      000B3B B5 02 07         [24] 2881 	cjne	a,ar2,00109$
                                   2882 ;	../Firmware/src/utils.c:537: j++;
      000B3E 0D               [12] 2883 	inc	r5
      000B3F BD 00 B7         [24] 2884 	cjne	r5,#0x00,00107$
      000B42 0E               [12] 2885 	inc	r6
      000B43 80 B4            [24] 2886 	sjmp	00107$
      000B45                       2887 00109$:
                                   2888 ;	../Firmware/src/utils.c:539: if (j == str_len) return i;
      000B45 ED               [12] 2889 	mov	a,r5
      000B46 B5*1A 09         [24] 2890 	cjne	a,_search_str_str_len_10001_215,00115$
      000B49 EE               [12] 2891 	mov	a,r6
      000B4A B5*1B 05         [24] 2892 	cjne	a,(_search_str_str_len_10001_215 + 1),00115$
      000B4D 88 82            [24] 2893 	mov	dpl, r0
      000B4F 8C 83            [24] 2894 	mov	dph, r4
      000B51 22               [24] 2895 	ret
      000B52                       2896 00115$:
                                   2897 ;	../Firmware/src/utils.c:534: for (int i = 0; i <= base_len - str_len; i++) {
      000B52 05*1C            [12] 2898 	inc	_search_str_i_20001_216
      000B54 E4               [12] 2899 	clr	a
      000B55 B5*1C 02         [24] 2900 	cjne	a,_search_str_i_20001_216,00177$
      000B58 05*1D            [12] 2901 	inc	(_search_str_i_20001_216 + 1)
      000B5A                       2902 00177$:
      000B5A A8*1C            [24] 2903 	mov	r0,_search_str_i_20001_216
      000B5C AC*1D            [24] 2904 	mov	r4,(_search_str_i_20001_216 + 1)
      000B5E 80 82            [24] 2905 	sjmp	00114$
      000B60                       2906 00112$:
                                   2907 ;	../Firmware/src/utils.c:542: return -1;
      000B60 90 FF FF         [24] 2908 	mov	dptr,#0xffff
                                   2909 ;	../Firmware/src/utils.c:543: }
      000B63 22               [24] 2910 	ret
                                   2911 ;------------------------------------------------------------
                                   2912 ;Allocation info for local variables in function 'convert_to_percentage'
                                   2913 ;------------------------------------------------------------
                                   2914 ;_number                   Allocated to registers r7 
                                   2915 ;------------------------------------------------------------
                                   2916 ;	../Firmware/src/utils.c:602: UINT8 convert_to_percentage(UINT8 _number){
                                   2917 ;	-----------------------------------------
                                   2918 ;	 function convert_to_percentage
                                   2919 ;	-----------------------------------------
      000B64                       2920 _convert_to_percentage:
      000B64 AF 82            [24] 2921 	mov	r7, dpl
                                   2922 ;	../Firmware/src/utils.c:603: return (_number * 100) / 255;
      000B66 8F*00            [24] 2923 	mov	__mulint_PARM_2,r7
      000B68 75*01 00         [24] 2924 	mov	(__mulint_PARM_2 + 1),#0x00
      000B6B 90 00 64         [24] 2925 	mov	dptr,#0x0064
      000B6E 12r00r00         [24] 2926 	lcall	__mulint
      000B71 75*00 FF         [24] 2927 	mov	__divsint_PARM_2,#0xff
      000B74 75*01 00         [24] 2928 	mov	(__divsint_PARM_2 + 1),#0x00
                                   2929 ;	../Firmware/src/utils.c:604: }
      000B77 02r00r00         [24] 2930 	ljmp	__divsint
                                   2931 ;------------------------------------------------------------
                                   2932 ;Allocation info for local variables in function 'convert'
                                   2933 ;------------------------------------------------------------
                                   2934 ;number                    Allocated with name '_convert_PARM_2'
                                   2935 ;num                       Allocated with name '_convert_num_10000_221'
                                   2936 ;i                         Allocated with name '_convert_i_10001_223'
                                   2937 ;temp                      Allocated with name '_convert_temp_10001_223'
                                   2938 ;j                         Allocated to registers r6 
                                   2939 ;------------------------------------------------------------
                                   2940 ;	../Firmware/src/utils.c:605: void convert(char *num, UINT8 number) {
                                   2941 ;	-----------------------------------------
                                   2942 ;	 function convert
                                   2943 ;	-----------------------------------------
      000B7A                       2944 _convert:
      000B7A 85 82*21         [24] 2945 	mov	_convert_num_10000_221,dpl
      000B7D 85 83*22         [24] 2946 	mov	(_convert_num_10000_221 + 1),dph
      000B80 85 F0*23         [24] 2947 	mov	(_convert_num_10000_221 + 2),b
                                   2948 ;	../Firmware/src/utils.c:606: if (num == NULL) return;
      000B83 E5*21            [12] 2949 	mov	a,_convert_num_10000_221
      000B85 45*22            [12] 2950 	orl	a,(_convert_num_10000_221 + 1)
      000B87 70 01            [24] 2951 	jnz	00102$
      000B89 22               [24] 2952 	ret
      000B8A                       2953 00102$:
                                   2954 ;	../Firmware/src/utils.c:609: char temp[4] = {0};  
                                   2955 ;	../Firmware/src/utils.c:610: if (number == 0) {
      000B8A E4               [12] 2956 	clr	a
      000B8B F5*25            [12] 2957 	mov	_convert_temp_10001_223,a
      000B8D F5*26            [12] 2958 	mov	(_convert_temp_10001_223 + 0x0001),a
      000B8F F5*27            [12] 2959 	mov	(_convert_temp_10001_223 + 0x0002),a
      000B91 F5*28            [12] 2960 	mov	(_convert_temp_10001_223 + 0x0003),a
      000B93 E5*20            [12] 2961 	mov	a,_convert_PARM_2
      000B95 70 23            [24] 2962 	jnz	00117$
                                   2963 ;	../Firmware/src/utils.c:611: num[i++] = '0';
      000B97 85*21 82         [24] 2964 	mov	dpl,_convert_num_10000_221
      000B9A 85*22 83         [24] 2965 	mov	dph,(_convert_num_10000_221 + 1)
      000B9D 85*23 F0         [24] 2966 	mov	b,(_convert_num_10000_221 + 2)
      000BA0 74 30            [12] 2967 	mov	a,#0x30
      000BA2 12r00r00         [24] 2968 	lcall	__gptrput
                                   2969 ;	../Firmware/src/utils.c:612: num[i] = '\0';
      000BA5 74 01            [12] 2970 	mov	a,#0x01
      000BA7 25*21            [12] 2971 	add	a, _convert_num_10000_221
      000BA9 FA               [12] 2972 	mov	r2,a
      000BAA E4               [12] 2973 	clr	a
      000BAB 35*22            [12] 2974 	addc	a, (_convert_num_10000_221 + 1)
      000BAD FB               [12] 2975 	mov	r3,a
      000BAE AC*23            [24] 2976 	mov	r4,(_convert_num_10000_221 + 2)
      000BB0 8A 82            [24] 2977 	mov	dpl,r2
      000BB2 8B 83            [24] 2978 	mov	dph,r3
      000BB4 8C F0            [24] 2979 	mov	b,r4
      000BB6 E4               [12] 2980 	clr	a
                                   2981 ;	../Firmware/src/utils.c:613: return;
      000BB7 02r00r00         [24] 2982 	ljmp	__gptrput
                                   2983 ;	../Firmware/src/utils.c:616: while (number > 0) {
      000BBA                       2984 00117$:
      000BBA 75*24 00         [24] 2985 	mov	_convert_i_10001_223,#0x00
      000BBD                       2986 00105$:
      000BBD E5*20            [12] 2987 	mov	a,_convert_PARM_2
      000BBF 60 3C            [24] 2988 	jz	00120$
                                   2989 ;	../Firmware/src/utils.c:617: temp[i++] = (number % 10) + '0';
      000BC1 E5*24            [12] 2990 	mov	a,_convert_i_10001_223
      000BC3 24r25            [12] 2991 	add	a, #_convert_temp_10001_223
      000BC5 F9               [12] 2992 	mov	r1,a
      000BC6 05*24            [12] 2993 	inc	_convert_i_10001_223
      000BC8 AA*20            [24] 2994 	mov	r2,_convert_PARM_2
      000BCA 7B 00            [12] 2995 	mov	r3,#0x00
      000BCC 75*00 0A         [24] 2996 	mov	__modsint_PARM_2,#0x0a
      000BCF 8B*01            [24] 2997 	mov	(__modsint_PARM_2 + 1),r3
      000BD1 8A 82            [24] 2998 	mov	dpl, r2
      000BD3 8B 83            [24] 2999 	mov	dph, r3
      000BD5 C0 03            [24] 3000 	push	ar3
      000BD7 C0 02            [24] 3001 	push	ar2
      000BD9 C0 01            [24] 3002 	push	ar1
      000BDB 12r00r00         [24] 3003 	lcall	__modsint
      000BDE AC 82            [24] 3004 	mov	r4, dpl
      000BE0 D0 01            [24] 3005 	pop	ar1
      000BE2 D0 02            [24] 3006 	pop	ar2
      000BE4 D0 03            [24] 3007 	pop	ar3
      000BE6 74 30            [12] 3008 	mov	a,#0x30
      000BE8 2C               [12] 3009 	add	a, r4
      000BE9 F7               [12] 3010 	mov	@r1,a
                                   3011 ;	../Firmware/src/utils.c:618: number /= 10;
      000BEA 75*00 0A         [24] 3012 	mov	__divsint_PARM_2,#0x0a
      000BED 75*01 00         [24] 3013 	mov	(__divsint_PARM_2 + 1),#0x00
      000BF0 8A 82            [24] 3014 	mov	dpl, r2
      000BF2 8B 83            [24] 3015 	mov	dph, r3
      000BF4 12r00r00         [24] 3016 	lcall	__divsint
      000BF7 AE 82            [24] 3017 	mov	r6, dpl
      000BF9 8E*20            [24] 3018 	mov	_convert_PARM_2,r6
      000BFB 80 C0            [24] 3019 	sjmp	00105$
      000BFD                       3020 00120$:
      000BFD AF*24            [24] 3021 	mov	r7,_convert_i_10001_223
                                   3022 ;	../Firmware/src/utils.c:621: for (UINT8 j = 0; j < i; j++) {
      000BFF 7E 00            [12] 3023 	mov	r6,#0x00
      000C01                       3024 00110$:
      000C01 C3               [12] 3025 	clr	c
      000C02 EE               [12] 3026 	mov	a,r6
      000C03 9F               [12] 3027 	subb	a,r7
      000C04 50 20            [24] 3028 	jnc	00108$
                                   3029 ;	../Firmware/src/utils.c:622: num[j] = temp[i - j - 1];
      000C06 EE               [12] 3030 	mov	a,r6
      000C07 25*21            [12] 3031 	add	a, _convert_num_10000_221
      000C09 FB               [12] 3032 	mov	r3,a
      000C0A E4               [12] 3033 	clr	a
      000C0B 35*22            [12] 3034 	addc	a, (_convert_num_10000_221 + 1)
      000C0D FC               [12] 3035 	mov	r4,a
      000C0E AD*23            [24] 3036 	mov	r5,(_convert_num_10000_221 + 2)
      000C10 EF               [12] 3037 	mov	a,r7
      000C11 C3               [12] 3038 	clr	c
      000C12 9E               [12] 3039 	subb	a,r6
      000C13 14               [12] 3040 	dec	a
      000C14 24r25            [12] 3041 	add	a, #_convert_temp_10001_223
      000C16 F9               [12] 3042 	mov	r1,a
      000C17 87 02            [24] 3043 	mov	ar2,@r1
      000C19 8B 82            [24] 3044 	mov	dpl,r3
      000C1B 8C 83            [24] 3045 	mov	dph,r4
      000C1D 8D F0            [24] 3046 	mov	b,r5
      000C1F EA               [12] 3047 	mov	a,r2
      000C20 12r00r00         [24] 3048 	lcall	__gptrput
                                   3049 ;	../Firmware/src/utils.c:621: for (UINT8 j = 0; j < i; j++) {
      000C23 0E               [12] 3050 	inc	r6
      000C24 80 DB            [24] 3051 	sjmp	00110$
      000C26                       3052 00108$:
                                   3053 ;	../Firmware/src/utils.c:624: num[i] = '\0';
      000C26 EF               [12] 3054 	mov	a,r7
      000C27 25*21            [12] 3055 	add	a, _convert_num_10000_221
      000C29 FF               [12] 3056 	mov	r7,a
      000C2A E4               [12] 3057 	clr	a
      000C2B 35*22            [12] 3058 	addc	a, (_convert_num_10000_221 + 1)
      000C2D FE               [12] 3059 	mov	r6,a
      000C2E AD*23            [24] 3060 	mov	r5,(_convert_num_10000_221 + 2)
      000C30 8F 82            [24] 3061 	mov	dpl,r7
      000C32 8E 83            [24] 3062 	mov	dph,r6
      000C34 8D F0            [24] 3063 	mov	b,r5
      000C36 E4               [12] 3064 	clr	a
                                   3065 ;	../Firmware/src/utils.c:625: }
      000C37 02r00r00         [24] 3066 	ljmp	__gptrput
                                   3067 ;------------------------------------------------------------
                                   3068 ;Allocation info for local variables in function 'getURL'
                                   3069 ;------------------------------------------------------------
                                   3070 ;latitude                  Allocated with name '_getURL_PARM_2'
                                   3071 ;longitude                 Allocated with name '_getURL_PARM_3'
                                   3072 ;level                     Allocated with name '_getURL_PARM_4'
                                   3073 ;url                       Allocated to registers r5 r6 r7 
                                   3074 ;id                        Allocated with name '_getURL_id_10000_229'
                                   3075 ;------------------------------------------------------------
                                   3076 ;	../Firmware/src/utils.c:627: UINT8 getURL(char * url, char * latitude, char * longitude, char * level){
                                   3077 ;	-----------------------------------------
                                   3078 ;	 function getURL
                                   3079 ;	-----------------------------------------
      000C3A                       3080 _getURL:
      000C3A AD 82            [24] 3081 	mov	r5, dpl
      000C3C AE 83            [24] 3082 	mov	r6, dph
      000C3E AF F0            [24] 3083 	mov	r7, b
                                   3084 ;	../Firmware/src/utils.c:628: __xdata unsigned char id[15] = {0};
      000C40 90r01r50         [24] 3085 	mov	dptr,#_getURL_id_10000_229
      000C43 E4               [12] 3086 	clr	a
      000C44 F0               [24] 3087 	movx	@dptr,a
      000C45 90r01r51         [24] 3088 	mov	dptr,#(_getURL_id_10000_229 + 0x0001)
      000C48 F0               [24] 3089 	movx	@dptr,a
      000C49 90r01r52         [24] 3090 	mov	dptr,#(_getURL_id_10000_229 + 0x0002)
      000C4C F0               [24] 3091 	movx	@dptr,a
      000C4D 90r01r53         [24] 3092 	mov	dptr,#(_getURL_id_10000_229 + 0x0003)
      000C50 F0               [24] 3093 	movx	@dptr,a
      000C51 90r01r54         [24] 3094 	mov	dptr,#(_getURL_id_10000_229 + 0x0004)
      000C54 F0               [24] 3095 	movx	@dptr,a
      000C55 90r01r55         [24] 3096 	mov	dptr,#(_getURL_id_10000_229 + 0x0005)
      000C58 F0               [24] 3097 	movx	@dptr,a
      000C59 90r01r56         [24] 3098 	mov	dptr,#(_getURL_id_10000_229 + 0x0006)
      000C5C F0               [24] 3099 	movx	@dptr,a
      000C5D 90r01r57         [24] 3100 	mov	dptr,#(_getURL_id_10000_229 + 0x0007)
      000C60 F0               [24] 3101 	movx	@dptr,a
      000C61 90r01r58         [24] 3102 	mov	dptr,#(_getURL_id_10000_229 + 0x0008)
      000C64 F0               [24] 3103 	movx	@dptr,a
      000C65 90r01r59         [24] 3104 	mov	dptr,#(_getURL_id_10000_229 + 0x0009)
      000C68 F0               [24] 3105 	movx	@dptr,a
      000C69 90r01r5A         [24] 3106 	mov	dptr,#(_getURL_id_10000_229 + 0x000a)
      000C6C F0               [24] 3107 	movx	@dptr,a
      000C6D 90r01r5B         [24] 3108 	mov	dptr,#(_getURL_id_10000_229 + 0x000b)
      000C70 F0               [24] 3109 	movx	@dptr,a
      000C71 90r01r5C         [24] 3110 	mov	dptr,#(_getURL_id_10000_229 + 0x000c)
      000C74 F0               [24] 3111 	movx	@dptr,a
      000C75 90r01r5D         [24] 3112 	mov	dptr,#(_getURL_id_10000_229 + 0x000d)
      000C78 F0               [24] 3113 	movx	@dptr,a
      000C79 90r01r5E         [24] 3114 	mov	dptr,#(_getURL_id_10000_229 + 0x000e)
      000C7C F0               [24] 3115 	movx	@dptr,a
                                   3116 ;	../Firmware/src/utils.c:629: DeviceSerialNumber(id);
      000C7D 90r01r50         [24] 3117 	mov	dptr,#_getURL_id_10000_229
      000C80 F5 F0            [12] 3118 	mov	b,a
      000C82 C0 07            [24] 3119 	push	ar7
      000C84 C0 06            [24] 3120 	push	ar6
      000C86 C0 05            [24] 3121 	push	ar5
      000C88 12r00r00         [24] 3122 	lcall	_DeviceSerialNumber
      000C8B D0 05            [24] 3123 	pop	ar5
      000C8D D0 06            [24] 3124 	pop	ar6
      000C8F D0 07            [24] 3125 	pop	ar7
                                   3126 ;	../Firmware/src/utils.c:630: strcpy(url,"GET /api/v1/device_log?device_id=");
      000C91 75*00r00         [24] 3127 	mov	_strcpy_PARM_2,#___str_0
      000C94 75*01s00         [24] 3128 	mov	(_strcpy_PARM_2 + 1),#(___str_0 >> 8)
      000C97 75*02 80         [24] 3129 	mov	(_strcpy_PARM_2 + 2),#0x80
      000C9A 8D 82            [24] 3130 	mov	dpl, r5
      000C9C 8E 83            [24] 3131 	mov	dph, r6
      000C9E 8F F0            [24] 3132 	mov	b, r7
      000CA0 C0 07            [24] 3133 	push	ar7
      000CA2 C0 06            [24] 3134 	push	ar6
      000CA4 C0 05            [24] 3135 	push	ar5
      000CA6 12r00r00         [24] 3136 	lcall	_strcpy
      000CA9 D0 05            [24] 3137 	pop	ar5
      000CAB D0 06            [24] 3138 	pop	ar6
      000CAD D0 07            [24] 3139 	pop	ar7
                                   3140 ;	../Firmware/src/utils.c:631: strcat(url,id);
      000CAF 75*00r50         [24] 3141 	mov	_strcat_PARM_2,#_getURL_id_10000_229
      000CB2 75*01s01         [24] 3142 	mov	(_strcat_PARM_2 + 1),#(_getURL_id_10000_229 >> 8)
      000CB5 75*02 00         [24] 3143 	mov	(_strcat_PARM_2 + 2),#0x00
      000CB8 8D 82            [24] 3144 	mov	dpl, r5
      000CBA 8E 83            [24] 3145 	mov	dph, r6
      000CBC 8F F0            [24] 3146 	mov	b, r7
      000CBE C0 07            [24] 3147 	push	ar7
      000CC0 C0 06            [24] 3148 	push	ar6
      000CC2 C0 05            [24] 3149 	push	ar5
      000CC4 12r00r00         [24] 3150 	lcall	_strcat
      000CC7 D0 05            [24] 3151 	pop	ar5
      000CC9 D0 06            [24] 3152 	pop	ar6
      000CCB D0 07            [24] 3153 	pop	ar7
                                   3154 ;	../Firmware/src/utils.c:632: strcat(url,"&latitude=");
      000CCD 75*00r22         [24] 3155 	mov	_strcat_PARM_2,#___str_1
      000CD0 75*01s00         [24] 3156 	mov	(_strcat_PARM_2 + 1),#(___str_1 >> 8)
      000CD3 75*02 80         [24] 3157 	mov	(_strcat_PARM_2 + 2),#0x80
      000CD6 8D 82            [24] 3158 	mov	dpl, r5
      000CD8 8E 83            [24] 3159 	mov	dph, r6
      000CDA 8F F0            [24] 3160 	mov	b, r7
      000CDC C0 07            [24] 3161 	push	ar7
      000CDE C0 06            [24] 3162 	push	ar6
      000CE0 C0 05            [24] 3163 	push	ar5
      000CE2 12r00r00         [24] 3164 	lcall	_strcat
      000CE5 D0 05            [24] 3165 	pop	ar5
      000CE7 D0 06            [24] 3166 	pop	ar6
      000CE9 D0 07            [24] 3167 	pop	ar7
                                   3168 ;	../Firmware/src/utils.c:633: strcat(url,latitude);
      000CEB 85*29*00         [24] 3169 	mov	_strcat_PARM_2,_getURL_PARM_2
      000CEE 85*2A*01         [24] 3170 	mov	(_strcat_PARM_2 + 1),(_getURL_PARM_2 + 1)
      000CF1 85*2B*02         [24] 3171 	mov	(_strcat_PARM_2 + 2),(_getURL_PARM_2 + 2)
      000CF4 8D 82            [24] 3172 	mov	dpl, r5
      000CF6 8E 83            [24] 3173 	mov	dph, r6
      000CF8 8F F0            [24] 3174 	mov	b, r7
      000CFA C0 07            [24] 3175 	push	ar7
      000CFC C0 06            [24] 3176 	push	ar6
      000CFE C0 05            [24] 3177 	push	ar5
      000D00 12r00r00         [24] 3178 	lcall	_strcat
      000D03 D0 05            [24] 3179 	pop	ar5
      000D05 D0 06            [24] 3180 	pop	ar6
      000D07 D0 07            [24] 3181 	pop	ar7
                                   3182 ;	../Firmware/src/utils.c:634: strcat(url,"&longitude=");
      000D09 75*00r2D         [24] 3183 	mov	_strcat_PARM_2,#___str_2
      000D0C 75*01s00         [24] 3184 	mov	(_strcat_PARM_2 + 1),#(___str_2 >> 8)
      000D0F 75*02 80         [24] 3185 	mov	(_strcat_PARM_2 + 2),#0x80
      000D12 8D 82            [24] 3186 	mov	dpl, r5
      000D14 8E 83            [24] 3187 	mov	dph, r6
      000D16 8F F0            [24] 3188 	mov	b, r7
      000D18 C0 07            [24] 3189 	push	ar7
      000D1A C0 06            [24] 3190 	push	ar6
      000D1C C0 05            [24] 3191 	push	ar5
      000D1E 12r00r00         [24] 3192 	lcall	_strcat
      000D21 D0 05            [24] 3193 	pop	ar5
      000D23 D0 06            [24] 3194 	pop	ar6
      000D25 D0 07            [24] 3195 	pop	ar7
                                   3196 ;	../Firmware/src/utils.c:635: strcat(url,longitude);
      000D27 85*2C*00         [24] 3197 	mov	_strcat_PARM_2,_getURL_PARM_3
      000D2A 85*2D*01         [24] 3198 	mov	(_strcat_PARM_2 + 1),(_getURL_PARM_3 + 1)
      000D2D 85*2E*02         [24] 3199 	mov	(_strcat_PARM_2 + 2),(_getURL_PARM_3 + 2)
      000D30 8D 82            [24] 3200 	mov	dpl, r5
      000D32 8E 83            [24] 3201 	mov	dph, r6
      000D34 8F F0            [24] 3202 	mov	b, r7
      000D36 C0 07            [24] 3203 	push	ar7
      000D38 C0 06            [24] 3204 	push	ar6
      000D3A C0 05            [24] 3205 	push	ar5
      000D3C 12r00r00         [24] 3206 	lcall	_strcat
      000D3F D0 05            [24] 3207 	pop	ar5
      000D41 D0 06            [24] 3208 	pop	ar6
      000D43 D0 07            [24] 3209 	pop	ar7
                                   3210 ;	../Firmware/src/utils.c:636: strcat(url,"&level=");
      000D45 75*00r39         [24] 3211 	mov	_strcat_PARM_2,#___str_3
      000D48 75*01s00         [24] 3212 	mov	(_strcat_PARM_2 + 1),#(___str_3 >> 8)
      000D4B 75*02 80         [24] 3213 	mov	(_strcat_PARM_2 + 2),#0x80
      000D4E 8D 82            [24] 3214 	mov	dpl, r5
      000D50 8E 83            [24] 3215 	mov	dph, r6
      000D52 8F F0            [24] 3216 	mov	b, r7
      000D54 C0 07            [24] 3217 	push	ar7
      000D56 C0 06            [24] 3218 	push	ar6
      000D58 C0 05            [24] 3219 	push	ar5
      000D5A 12r00r00         [24] 3220 	lcall	_strcat
      000D5D D0 05            [24] 3221 	pop	ar5
      000D5F D0 06            [24] 3222 	pop	ar6
      000D61 D0 07            [24] 3223 	pop	ar7
                                   3224 ;	../Firmware/src/utils.c:637: strcat(url,level);
      000D63 85*2F*00         [24] 3225 	mov	_strcat_PARM_2,_getURL_PARM_4
      000D66 85*30*01         [24] 3226 	mov	(_strcat_PARM_2 + 1),(_getURL_PARM_4 + 1)
      000D69 85*31*02         [24] 3227 	mov	(_strcat_PARM_2 + 2),(_getURL_PARM_4 + 2)
      000D6C 8D 82            [24] 3228 	mov	dpl, r5
      000D6E 8E 83            [24] 3229 	mov	dph, r6
      000D70 8F F0            [24] 3230 	mov	b, r7
      000D72 C0 07            [24] 3231 	push	ar7
      000D74 C0 06            [24] 3232 	push	ar6
      000D76 C0 05            [24] 3233 	push	ar5
      000D78 12r00r00         [24] 3234 	lcall	_strcat
      000D7B D0 05            [24] 3235 	pop	ar5
      000D7D D0 06            [24] 3236 	pop	ar6
      000D7F D0 07            [24] 3237 	pop	ar7
                                   3238 ;	../Firmware/src/utils.c:638: strcat(url,".00 HTTP/1.1\n");
      000D81 75*00r41         [24] 3239 	mov	_strcat_PARM_2,#___str_4
      000D84 75*01s00         [24] 3240 	mov	(_strcat_PARM_2 + 1),#(___str_4 >> 8)
      000D87 75*02 80         [24] 3241 	mov	(_strcat_PARM_2 + 2),#0x80
      000D8A 8D 82            [24] 3242 	mov	dpl, r5
      000D8C 8E 83            [24] 3243 	mov	dph, r6
      000D8E 8F F0            [24] 3244 	mov	b, r7
      000D90 C0 07            [24] 3245 	push	ar7
      000D92 C0 06            [24] 3246 	push	ar6
      000D94 C0 05            [24] 3247 	push	ar5
      000D96 12r00r00         [24] 3248 	lcall	_strcat
      000D99 D0 05            [24] 3249 	pop	ar5
      000D9B D0 06            [24] 3250 	pop	ar6
      000D9D D0 07            [24] 3251 	pop	ar7
                                   3252 ;	../Firmware/src/utils.c:639: strcat(url,"Host: gastrackafrica.com.ng\nConnection: close");
      000D9F 75*00r4F         [24] 3253 	mov	_strcat_PARM_2,#___str_5
      000DA2 75*01s00         [24] 3254 	mov	(_strcat_PARM_2 + 1),#(___str_5 >> 8)
      000DA5 75*02 80         [24] 3255 	mov	(_strcat_PARM_2 + 2),#0x80
      000DA8 8D 82            [24] 3256 	mov	dpl, r5
      000DAA 8E 83            [24] 3257 	mov	dph, r6
      000DAC 8F F0            [24] 3258 	mov	b, r7
      000DAE C0 07            [24] 3259 	push	ar7
      000DB0 C0 06            [24] 3260 	push	ar6
      000DB2 C0 05            [24] 3261 	push	ar5
      000DB4 12r00r00         [24] 3262 	lcall	_strcat
      000DB7 D0 05            [24] 3263 	pop	ar5
      000DB9 D0 06            [24] 3264 	pop	ar6
      000DBB D0 07            [24] 3265 	pop	ar7
                                   3266 ;	../Firmware/src/utils.c:641: return (UINT8)strlen(url);
      000DBD 8D 82            [24] 3267 	mov	dpl, r5
      000DBF 8E 83            [24] 3268 	mov	dph, r6
      000DC1 8F F0            [24] 3269 	mov	b, r7
                                   3270 ;	../Firmware/src/utils.c:642: }
      000DC3 02r00r00         [24] 3271 	ljmp	_strlen
                                   3272 	.area CSEG    (CODE)
                                   3273 	.area CONST   (CODE)
                                   3274 	.area CONST   (CODE)
      000000                       3275 ___str_0:
      000000 47 45 54 20 2F 61 70  3276 	.ascii "GET /api/v1/device_log?device_id="
             69 2F 76 31 2F 64 65
             76 69 63 65 5F 6C 6F
             67 3F 64 65 76 69 63
             65 5F 69 64 3D
      000021 00                    3277 	.db 0x00
                                   3278 	.area CSEG    (CODE)
                                   3279 	.area CONST   (CODE)
      000022                       3280 ___str_1:
      000022 26 6C 61 74 69 74 75  3281 	.ascii "&latitude="
             64 65 3D
      00002C 00                    3282 	.db 0x00
                                   3283 	.area CSEG    (CODE)
                                   3284 	.area CONST   (CODE)
      00002D                       3285 ___str_2:
      00002D 26 6C 6F 6E 67 69 74  3286 	.ascii "&longitude="
             75 64 65 3D
      000038 00                    3287 	.db 0x00
                                   3288 	.area CSEG    (CODE)
                                   3289 	.area CONST   (CODE)
      000039                       3290 ___str_3:
      000039 26 6C 65 76 65 6C 3D  3291 	.ascii "&level="
      000040 00                    3292 	.db 0x00
                                   3293 	.area CSEG    (CODE)
                                   3294 	.area CONST   (CODE)
      000041                       3295 ___str_4:
      000041 2E 30 30 20 48 54 54  3296 	.ascii ".00 HTTP/1.1"
             50 2F 31 2E 31
      00004D 0A                    3297 	.db 0x0a
      00004E 00                    3298 	.db 0x00
                                   3299 	.area CSEG    (CODE)
                                   3300 	.area CONST   (CODE)
      00004F                       3301 ___str_5:
      00004F 48 6F 73 74 3A 20 67  3302 	.ascii "Host: gastrackafrica.com.ng"
             61 73 74 72 61 63 6B
             61 66 72 69 63 61 2E
             63 6F 6D 2E 6E 67
      00006A 0A                    3303 	.db 0x0a
      00006B 43 6F 6E 6E 65 63 74  3304 	.ascii "Connection: close"
             69 6F 6E 3A 20 63 6C
             6F 73 65
      00007C 00                    3305 	.db 0x00
                                   3306 	.area CSEG    (CODE)
                                   3307 	.area XINIT   (CODE)
                                   3308 	.area CABS    (ABS,CODE)
