                                      1 ;--------------------------------------------------------
                                      2 ; File Created by SDCC : free open source ISO C Compiler 
                                      3 ; Version 4.4.0 #14620 (Mac OS X x86_64)
                                      4 ;--------------------------------------------------------
                                      5 	.module WiFi_Module
                                      6 	.optsdcc -mmcs51 --model-small
                                      7 	
                                      8 ;--------------------------------------------------------
                                      9 ; Public variables in this module
                                     10 ;--------------------------------------------------------
                                     11 	.globl _echo_find
                                     12 	.globl _search_str
                                     13 	.globl _uart0_read_string_until
                                     14 	.globl _uart0_println
                                     15 	.globl _strlen
                                     16 	.globl _UIF_BUS_RST
                                     17 	.globl _UIF_TRANSFER
                                     18 	.globl _UIF_SUSPEND
                                     19 	.globl _UIF_FIFO_OV
                                     20 	.globl _U_SIE_FREE
                                     21 	.globl _U_TOG_OK
                                     22 	.globl _U_IS_NAK
                                     23 	.globl _ADC_CHAN0
                                     24 	.globl _ADC_CHAN1
                                     25 	.globl _CMP_CHAN
                                     26 	.globl _ADC_START
                                     27 	.globl _ADC_IF
                                     28 	.globl _CMP_IF
                                     29 	.globl _CMPO
                                     30 	.globl _U1RI
                                     31 	.globl _U1TI
                                     32 	.globl _U1RB8
                                     33 	.globl _U1TB8
                                     34 	.globl _U1REN
                                     35 	.globl _U1SMOD
                                     36 	.globl _U1SM0
                                     37 	.globl _S0_R_FIFO
                                     38 	.globl _S0_T_FIFO
                                     39 	.globl _S0_FREE
                                     40 	.globl _S0_IF_BYTE
                                     41 	.globl _S0_IF_FIRST
                                     42 	.globl _S0_IF_OV
                                     43 	.globl _S0_FST_ACT
                                     44 	.globl _CP_RL2
                                     45 	.globl _C_T2
                                     46 	.globl _TR2
                                     47 	.globl _EXEN2
                                     48 	.globl _TCLK
                                     49 	.globl _RCLK
                                     50 	.globl _EXF2
                                     51 	.globl _CAP1F
                                     52 	.globl _TF2
                                     53 	.globl _RI
                                     54 	.globl _TI
                                     55 	.globl _RB8
                                     56 	.globl _TB8
                                     57 	.globl _REN
                                     58 	.globl _SM2
                                     59 	.globl _SM1
                                     60 	.globl _SM0
                                     61 	.globl _IT0
                                     62 	.globl _IE0
                                     63 	.globl _IT1
                                     64 	.globl _IE1
                                     65 	.globl _TR0
                                     66 	.globl _TF0
                                     67 	.globl _TR1
                                     68 	.globl _TF1
                                     69 	.globl _RXD
                                     70 	.globl _PWM1_
                                     71 	.globl _TXD
                                     72 	.globl _PWM2_
                                     73 	.globl _AIN3
                                     74 	.globl _VBUS1
                                     75 	.globl _INT0
                                     76 	.globl _TXD1_
                                     77 	.globl _INT1
                                     78 	.globl _T0
                                     79 	.globl _RXD1_
                                     80 	.globl _PWM2
                                     81 	.globl _T1
                                     82 	.globl _UDP
                                     83 	.globl _UDM
                                     84 	.globl _TIN0
                                     85 	.globl _CAP1
                                     86 	.globl _T2
                                     87 	.globl _AIN0
                                     88 	.globl _VBUS2
                                     89 	.globl _TIN1
                                     90 	.globl _CAP2
                                     91 	.globl _T2EX
                                     92 	.globl _RXD_
                                     93 	.globl _TXD_
                                     94 	.globl _AIN1
                                     95 	.globl _UCC1
                                     96 	.globl _TIN2
                                     97 	.globl _SCS
                                     98 	.globl _CAP1_
                                     99 	.globl _T2_
                                    100 	.globl _AIN2
                                    101 	.globl _UCC2
                                    102 	.globl _TIN3
                                    103 	.globl _PWM1
                                    104 	.globl _MOSI
                                    105 	.globl _TIN4
                                    106 	.globl _RXD1
                                    107 	.globl _MISO
                                    108 	.globl _TIN5
                                    109 	.globl _TXD1
                                    110 	.globl _SCK
                                    111 	.globl _IE_SPI0
                                    112 	.globl _IE_TKEY
                                    113 	.globl _IE_USB
                                    114 	.globl _IE_ADC
                                    115 	.globl _IE_UART1
                                    116 	.globl _IE_PWMX
                                    117 	.globl _IE_GPIO
                                    118 	.globl _IE_WDOG
                                    119 	.globl _PX0
                                    120 	.globl _PT0
                                    121 	.globl _PX1
                                    122 	.globl _PT1
                                    123 	.globl _PS
                                    124 	.globl _PT2
                                    125 	.globl _PL_FLAG
                                    126 	.globl _PH_FLAG
                                    127 	.globl _EX0
                                    128 	.globl _ET0
                                    129 	.globl _EX1
                                    130 	.globl _ET1
                                    131 	.globl _ES
                                    132 	.globl _ET2
                                    133 	.globl _E_DIS
                                    134 	.globl _EA
                                    135 	.globl _P
                                    136 	.globl _F1
                                    137 	.globl _OV
                                    138 	.globl _RS0
                                    139 	.globl _RS1
                                    140 	.globl _F0
                                    141 	.globl _AC
                                    142 	.globl _CY
                                    143 	.globl _UEP1_DMA_H
                                    144 	.globl _UEP1_DMA_L
                                    145 	.globl _UEP1_DMA
                                    146 	.globl _UEP0_DMA_H
                                    147 	.globl _UEP0_DMA_L
                                    148 	.globl _UEP0_DMA
                                    149 	.globl _UEP2_3_MOD
                                    150 	.globl _UEP4_1_MOD
                                    151 	.globl _UEP3_DMA_H
                                    152 	.globl _UEP3_DMA_L
                                    153 	.globl _UEP3_DMA
                                    154 	.globl _UEP2_DMA_H
                                    155 	.globl _UEP2_DMA_L
                                    156 	.globl _UEP2_DMA
                                    157 	.globl _USB_DEV_AD
                                    158 	.globl _USB_CTRL
                                    159 	.globl _USB_INT_EN
                                    160 	.globl _UEP4_T_LEN
                                    161 	.globl _UEP4_CTRL
                                    162 	.globl _UEP0_T_LEN
                                    163 	.globl _UEP0_CTRL
                                    164 	.globl _USB_RX_LEN
                                    165 	.globl _USB_MIS_ST
                                    166 	.globl _USB_INT_ST
                                    167 	.globl _USB_INT_FG
                                    168 	.globl _UEP3_T_LEN
                                    169 	.globl _UEP3_CTRL
                                    170 	.globl _UEP2_T_LEN
                                    171 	.globl _UEP2_CTRL
                                    172 	.globl _UEP1_T_LEN
                                    173 	.globl _UEP1_CTRL
                                    174 	.globl _UDEV_CTRL
                                    175 	.globl _USB_C_CTRL
                                    176 	.globl _TKEY_DATH
                                    177 	.globl _TKEY_DATL
                                    178 	.globl _TKEY_DAT
                                    179 	.globl _TKEY_CTRL
                                    180 	.globl _ADC_DATA
                                    181 	.globl _ADC_CFG
                                    182 	.globl _ADC_CTRL
                                    183 	.globl _SBAUD1
                                    184 	.globl _SBUF1
                                    185 	.globl _SCON1
                                    186 	.globl _SPI0_SETUP
                                    187 	.globl _SPI0_CK_SE
                                    188 	.globl _SPI0_CTRL
                                    189 	.globl _SPI0_DATA
                                    190 	.globl _SPI0_STAT
                                    191 	.globl _PWM_CK_SE
                                    192 	.globl _PWM_CTRL
                                    193 	.globl _PWM_DATA1
                                    194 	.globl _PWM_DATA2
                                    195 	.globl _T2CAP1H
                                    196 	.globl _T2CAP1L
                                    197 	.globl _T2CAP1
                                    198 	.globl _TH2
                                    199 	.globl _TL2
                                    200 	.globl _T2COUNT
                                    201 	.globl _RCAP2H
                                    202 	.globl _RCAP2L
                                    203 	.globl _RCAP2
                                    204 	.globl _T2MOD
                                    205 	.globl _T2CON
                                    206 	.globl _SBUF
                                    207 	.globl _SCON
                                    208 	.globl _TH1
                                    209 	.globl _TH0
                                    210 	.globl _TL1
                                    211 	.globl _TL0
                                    212 	.globl _TMOD
                                    213 	.globl _TCON
                                    214 	.globl _XBUS_AUX
                                    215 	.globl _PIN_FUNC
                                    216 	.globl _P3_DIR_PU
                                    217 	.globl _P3_MOD_OC
                                    218 	.globl _P3
                                    219 	.globl _P2
                                    220 	.globl _P1_DIR_PU
                                    221 	.globl _P1_MOD_OC
                                    222 	.globl _P1
                                    223 	.globl _ROM_CTRL
                                    224 	.globl _ROM_DATA_H
                                    225 	.globl _ROM_DATA_L
                                    226 	.globl _ROM_DATA
                                    227 	.globl _ROM_ADDR_H
                                    228 	.globl _ROM_ADDR_L
                                    229 	.globl _ROM_ADDR
                                    230 	.globl _GPIO_IE
                                    231 	.globl _IP_EX
                                    232 	.globl _IE_EX
                                    233 	.globl _IP
                                    234 	.globl _IE
                                    235 	.globl _WDOG_COUNT
                                    236 	.globl _RESET_KEEP
                                    237 	.globl _WAKE_CTRL
                                    238 	.globl _CLOCK_CFG
                                    239 	.globl _PCON
                                    240 	.globl _GLOBAL_CFG
                                    241 	.globl _SAFE_MOD
                                    242 	.globl _DPH
                                    243 	.globl _DPL
                                    244 	.globl _SP
                                    245 	.globl _B
                                    246 	.globl _ACC
                                    247 	.globl _PSW
                                    248 	.globl _pwd
                                    249 	.globl _ssid
                                    250 	.globl _instruction
                                    251 	.globl _wifi_send_command_PARM_3
                                    252 	.globl _wifi_send_command_PARM_2
                                    253 	.globl _echo_find_PARM_2
                                    254 	.globl _wifi_send_command
                                    255 ;--------------------------------------------------------
                                    256 ; special function registers
                                    257 ;--------------------------------------------------------
                                    258 	.area RSEG    (ABS,DATA)
      000000                        259 	.org 0x0000
                           0000D0   260 _PSW	=	0x00d0
                           0000E0   261 _ACC	=	0x00e0
                           0000F0   262 _B	=	0x00f0
                           000081   263 _SP	=	0x0081
                           000082   264 _DPL	=	0x0082
                           000083   265 _DPH	=	0x0083
                           0000A1   266 _SAFE_MOD	=	0x00a1
                           0000B1   267 _GLOBAL_CFG	=	0x00b1
                           000087   268 _PCON	=	0x0087
                           0000B9   269 _CLOCK_CFG	=	0x00b9
                           0000A9   270 _WAKE_CTRL	=	0x00a9
                           0000FE   271 _RESET_KEEP	=	0x00fe
                           0000FF   272 _WDOG_COUNT	=	0x00ff
                           0000A8   273 _IE	=	0x00a8
                           0000B8   274 _IP	=	0x00b8
                           0000E8   275 _IE_EX	=	0x00e8
                           0000E9   276 _IP_EX	=	0x00e9
                           0000C7   277 _GPIO_IE	=	0x00c7
                           008584   278 _ROM_ADDR	=	0x8584
                           000084   279 _ROM_ADDR_L	=	0x0084
                           000085   280 _ROM_ADDR_H	=	0x0085
                           008F8E   281 _ROM_DATA	=	0x8f8e
                           00008E   282 _ROM_DATA_L	=	0x008e
                           00008F   283 _ROM_DATA_H	=	0x008f
                           000086   284 _ROM_CTRL	=	0x0086
                           000090   285 _P1	=	0x0090
                           000092   286 _P1_MOD_OC	=	0x0092
                           000093   287 _P1_DIR_PU	=	0x0093
                           0000A0   288 _P2	=	0x00a0
                           0000B0   289 _P3	=	0x00b0
                           000096   290 _P3_MOD_OC	=	0x0096
                           000097   291 _P3_DIR_PU	=	0x0097
                           0000C6   292 _PIN_FUNC	=	0x00c6
                           0000A2   293 _XBUS_AUX	=	0x00a2
                           000088   294 _TCON	=	0x0088
                           000089   295 _TMOD	=	0x0089
                           00008A   296 _TL0	=	0x008a
                           00008B   297 _TL1	=	0x008b
                           00008C   298 _TH0	=	0x008c
                           00008D   299 _TH1	=	0x008d
                           000098   300 _SCON	=	0x0098
                           000099   301 _SBUF	=	0x0099
                           0000C8   302 _T2CON	=	0x00c8
                           0000C9   303 _T2MOD	=	0x00c9
                           00CBCA   304 _RCAP2	=	0xcbca
                           0000CA   305 _RCAP2L	=	0x00ca
                           0000CB   306 _RCAP2H	=	0x00cb
                           00CDCC   307 _T2COUNT	=	0xcdcc
                           0000CC   308 _TL2	=	0x00cc
                           0000CD   309 _TH2	=	0x00cd
                           00CFCE   310 _T2CAP1	=	0xcfce
                           0000CE   311 _T2CAP1L	=	0x00ce
                           0000CF   312 _T2CAP1H	=	0x00cf
                           00009B   313 _PWM_DATA2	=	0x009b
                           00009C   314 _PWM_DATA1	=	0x009c
                           00009D   315 _PWM_CTRL	=	0x009d
                           00009E   316 _PWM_CK_SE	=	0x009e
                           0000F8   317 _SPI0_STAT	=	0x00f8
                           0000F9   318 _SPI0_DATA	=	0x00f9
                           0000FA   319 _SPI0_CTRL	=	0x00fa
                           0000FB   320 _SPI0_CK_SE	=	0x00fb
                           0000FC   321 _SPI0_SETUP	=	0x00fc
                           0000C0   322 _SCON1	=	0x00c0
                           0000C1   323 _SBUF1	=	0x00c1
                           0000C2   324 _SBAUD1	=	0x00c2
                           000080   325 _ADC_CTRL	=	0x0080
                           00009A   326 _ADC_CFG	=	0x009a
                           00009F   327 _ADC_DATA	=	0x009f
                           0000C3   328 _TKEY_CTRL	=	0x00c3
                           00C5C4   329 _TKEY_DAT	=	0xc5c4
                           0000C4   330 _TKEY_DATL	=	0x00c4
                           0000C5   331 _TKEY_DATH	=	0x00c5
                           000091   332 _USB_C_CTRL	=	0x0091
                           0000D1   333 _UDEV_CTRL	=	0x00d1
                           0000D2   334 _UEP1_CTRL	=	0x00d2
                           0000D3   335 _UEP1_T_LEN	=	0x00d3
                           0000D4   336 _UEP2_CTRL	=	0x00d4
                           0000D5   337 _UEP2_T_LEN	=	0x00d5
                           0000D6   338 _UEP3_CTRL	=	0x00d6
                           0000D7   339 _UEP3_T_LEN	=	0x00d7
                           0000D8   340 _USB_INT_FG	=	0x00d8
                           0000D9   341 _USB_INT_ST	=	0x00d9
                           0000DA   342 _USB_MIS_ST	=	0x00da
                           0000DB   343 _USB_RX_LEN	=	0x00db
                           0000DC   344 _UEP0_CTRL	=	0x00dc
                           0000DD   345 _UEP0_T_LEN	=	0x00dd
                           0000DE   346 _UEP4_CTRL	=	0x00de
                           0000DF   347 _UEP4_T_LEN	=	0x00df
                           0000E1   348 _USB_INT_EN	=	0x00e1
                           0000E2   349 _USB_CTRL	=	0x00e2
                           0000E3   350 _USB_DEV_AD	=	0x00e3
                           00E5E4   351 _UEP2_DMA	=	0xe5e4
                           0000E4   352 _UEP2_DMA_L	=	0x00e4
                           0000E5   353 _UEP2_DMA_H	=	0x00e5
                           00E7E6   354 _UEP3_DMA	=	0xe7e6
                           0000E6   355 _UEP3_DMA_L	=	0x00e6
                           0000E7   356 _UEP3_DMA_H	=	0x00e7
                           0000EA   357 _UEP4_1_MOD	=	0x00ea
                           0000EB   358 _UEP2_3_MOD	=	0x00eb
                           00EDEC   359 _UEP0_DMA	=	0xedec
                           0000EC   360 _UEP0_DMA_L	=	0x00ec
                           0000ED   361 _UEP0_DMA_H	=	0x00ed
                           00EFEE   362 _UEP1_DMA	=	0xefee
                           0000EE   363 _UEP1_DMA_L	=	0x00ee
                           0000EF   364 _UEP1_DMA_H	=	0x00ef
                                    365 ;--------------------------------------------------------
                                    366 ; special function bits
                                    367 ;--------------------------------------------------------
                                    368 	.area RSEG    (ABS,DATA)
      000000                        369 	.org 0x0000
                           0000D7   370 _CY	=	0x00d7
                           0000D6   371 _AC	=	0x00d6
                           0000D5   372 _F0	=	0x00d5
                           0000D4   373 _RS1	=	0x00d4
                           0000D3   374 _RS0	=	0x00d3
                           0000D2   375 _OV	=	0x00d2
                           0000D1   376 _F1	=	0x00d1
                           0000D0   377 _P	=	0x00d0
                           0000AF   378 _EA	=	0x00af
                           0000AE   379 _E_DIS	=	0x00ae
                           0000AD   380 _ET2	=	0x00ad
                           0000AC   381 _ES	=	0x00ac
                           0000AB   382 _ET1	=	0x00ab
                           0000AA   383 _EX1	=	0x00aa
                           0000A9   384 _ET0	=	0x00a9
                           0000A8   385 _EX0	=	0x00a8
                           0000BF   386 _PH_FLAG	=	0x00bf
                           0000BE   387 _PL_FLAG	=	0x00be
                           0000BD   388 _PT2	=	0x00bd
                           0000BC   389 _PS	=	0x00bc
                           0000BB   390 _PT1	=	0x00bb
                           0000BA   391 _PX1	=	0x00ba
                           0000B9   392 _PT0	=	0x00b9
                           0000B8   393 _PX0	=	0x00b8
                           0000EF   394 _IE_WDOG	=	0x00ef
                           0000EE   395 _IE_GPIO	=	0x00ee
                           0000ED   396 _IE_PWMX	=	0x00ed
                           0000EC   397 _IE_UART1	=	0x00ec
                           0000EB   398 _IE_ADC	=	0x00eb
                           0000EA   399 _IE_USB	=	0x00ea
                           0000E9   400 _IE_TKEY	=	0x00e9
                           0000E8   401 _IE_SPI0	=	0x00e8
                           000097   402 _SCK	=	0x0097
                           000097   403 _TXD1	=	0x0097
                           000097   404 _TIN5	=	0x0097
                           000096   405 _MISO	=	0x0096
                           000096   406 _RXD1	=	0x0096
                           000096   407 _TIN4	=	0x0096
                           000095   408 _MOSI	=	0x0095
                           000095   409 _PWM1	=	0x0095
                           000095   410 _TIN3	=	0x0095
                           000095   411 _UCC2	=	0x0095
                           000095   412 _AIN2	=	0x0095
                           000094   413 _T2_	=	0x0094
                           000094   414 _CAP1_	=	0x0094
                           000094   415 _SCS	=	0x0094
                           000094   416 _TIN2	=	0x0094
                           000094   417 _UCC1	=	0x0094
                           000094   418 _AIN1	=	0x0094
                           000093   419 _TXD_	=	0x0093
                           000092   420 _RXD_	=	0x0092
                           000091   421 _T2EX	=	0x0091
                           000091   422 _CAP2	=	0x0091
                           000091   423 _TIN1	=	0x0091
                           000091   424 _VBUS2	=	0x0091
                           000091   425 _AIN0	=	0x0091
                           000090   426 _T2	=	0x0090
                           000090   427 _CAP1	=	0x0090
                           000090   428 _TIN0	=	0x0090
                           0000B7   429 _UDM	=	0x00b7
                           0000B6   430 _UDP	=	0x00b6
                           0000B5   431 _T1	=	0x00b5
                           0000B4   432 _PWM2	=	0x00b4
                           0000B4   433 _RXD1_	=	0x00b4
                           0000B4   434 _T0	=	0x00b4
                           0000B3   435 _INT1	=	0x00b3
                           0000B2   436 _TXD1_	=	0x00b2
                           0000B2   437 _INT0	=	0x00b2
                           0000B2   438 _VBUS1	=	0x00b2
                           0000B2   439 _AIN3	=	0x00b2
                           0000B1   440 _PWM2_	=	0x00b1
                           0000B1   441 _TXD	=	0x00b1
                           0000B0   442 _PWM1_	=	0x00b0
                           0000B0   443 _RXD	=	0x00b0
                           00008F   444 _TF1	=	0x008f
                           00008E   445 _TR1	=	0x008e
                           00008D   446 _TF0	=	0x008d
                           00008C   447 _TR0	=	0x008c
                           00008B   448 _IE1	=	0x008b
                           00008A   449 _IT1	=	0x008a
                           000089   450 _IE0	=	0x0089
                           000088   451 _IT0	=	0x0088
                           00009F   452 _SM0	=	0x009f
                           00009E   453 _SM1	=	0x009e
                           00009D   454 _SM2	=	0x009d
                           00009C   455 _REN	=	0x009c
                           00009B   456 _TB8	=	0x009b
                           00009A   457 _RB8	=	0x009a
                           000099   458 _TI	=	0x0099
                           000098   459 _RI	=	0x0098
                           0000CF   460 _TF2	=	0x00cf
                           0000CF   461 _CAP1F	=	0x00cf
                           0000CE   462 _EXF2	=	0x00ce
                           0000CD   463 _RCLK	=	0x00cd
                           0000CC   464 _TCLK	=	0x00cc
                           0000CB   465 _EXEN2	=	0x00cb
                           0000CA   466 _TR2	=	0x00ca
                           0000C9   467 _C_T2	=	0x00c9
                           0000C8   468 _CP_RL2	=	0x00c8
                           0000FF   469 _S0_FST_ACT	=	0x00ff
                           0000FE   470 _S0_IF_OV	=	0x00fe
                           0000FD   471 _S0_IF_FIRST	=	0x00fd
                           0000FC   472 _S0_IF_BYTE	=	0x00fc
                           0000FB   473 _S0_FREE	=	0x00fb
                           0000FA   474 _S0_T_FIFO	=	0x00fa
                           0000F8   475 _S0_R_FIFO	=	0x00f8
                           0000C7   476 _U1SM0	=	0x00c7
                           0000C5   477 _U1SMOD	=	0x00c5
                           0000C4   478 _U1REN	=	0x00c4
                           0000C3   479 _U1TB8	=	0x00c3
                           0000C2   480 _U1RB8	=	0x00c2
                           0000C1   481 _U1TI	=	0x00c1
                           0000C0   482 _U1RI	=	0x00c0
                           000087   483 _CMPO	=	0x0087
                           000086   484 _CMP_IF	=	0x0086
                           000085   485 _ADC_IF	=	0x0085
                           000084   486 _ADC_START	=	0x0084
                           000083   487 _CMP_CHAN	=	0x0083
                           000081   488 _ADC_CHAN1	=	0x0081
                           000080   489 _ADC_CHAN0	=	0x0080
                           0000DF   490 _U_IS_NAK	=	0x00df
                           0000DE   491 _U_TOG_OK	=	0x00de
                           0000DD   492 _U_SIE_FREE	=	0x00dd
                           0000DC   493 _UIF_FIFO_OV	=	0x00dc
                           0000DA   494 _UIF_SUSPEND	=	0x00da
                           0000D9   495 _UIF_TRANSFER	=	0x00d9
                           0000D8   496 _UIF_BUS_RST	=	0x00d8
                                    497 ;--------------------------------------------------------
                                    498 ; overlayable register banks
                                    499 ;--------------------------------------------------------
                                    500 	.area REG_BANK_0	(REL,OVR,DATA)
      000000                        501 	.ds 8
                                    502 ;--------------------------------------------------------
                                    503 ; internal ram data
                                    504 ;--------------------------------------------------------
                                    505 	.area DSEG    (DATA)
      00003A                        506 _echo_find_PARM_2:
      00003A                        507 	.ds 2
      00003C                        508 _wifi_send_command_PARM_2:
      00003C                        509 	.ds 3
      00003F                        510 _wifi_send_command_PARM_3:
      00003F                        511 	.ds 2
                                    512 ;--------------------------------------------------------
                                    513 ; overlayable items in internal ram
                                    514 ;--------------------------------------------------------
                                    515 ;--------------------------------------------------------
                                    516 ; indirectly addressable internal ram data
                                    517 ;--------------------------------------------------------
                                    518 	.area ISEG    (DATA)
                                    519 ;--------------------------------------------------------
                                    520 ; absolute internal ram data
                                    521 ;--------------------------------------------------------
                                    522 	.area IABS    (ABS,DATA)
                                    523 	.area IABS    (ABS,DATA)
                                    524 ;--------------------------------------------------------
                                    525 ; bit data
                                    526 ;--------------------------------------------------------
                                    527 	.area BSEG    (BIT)
                                    528 ;--------------------------------------------------------
                                    529 ; paged external ram data
                                    530 ;--------------------------------------------------------
                                    531 	.area PSEG    (PAG,XDATA)
                                    532 ;--------------------------------------------------------
                                    533 ; uninitialized external ram data
                                    534 ;--------------------------------------------------------
                                    535 	.area XSEG    (XDATA)
      000268                        536 _instruction::
      000268                        537 	.ds 50
      00029A                        538 _ssid::
      00029A                        539 	.ds 15
      0002A9                        540 _pwd::
      0002A9                        541 	.ds 15
      0002B8                        542 _echo_find_received_10000_82:
      0002B8                        543 	.ds 255
                                    544 ;--------------------------------------------------------
                                    545 ; absolute external ram data
                                    546 ;--------------------------------------------------------
                                    547 	.area XABS    (ABS,XDATA)
                                    548 ;--------------------------------------------------------
                                    549 ; initialized external ram data
                                    550 ;--------------------------------------------------------
                                    551 	.area XISEG   (XDATA)
                                    552 	.area HOME    (CODE)
                                    553 	.area GSINIT0 (CODE)
                                    554 	.area GSINIT1 (CODE)
                                    555 	.area GSINIT2 (CODE)
                                    556 	.area GSINIT3 (CODE)
                                    557 	.area GSINIT4 (CODE)
                                    558 	.area GSINIT5 (CODE)
                                    559 	.area GSINIT  (CODE)
                                    560 	.area GSFINAL (CODE)
                                    561 	.area CSEG    (CODE)
                                    562 ;--------------------------------------------------------
                                    563 ; global & static initialisations
                                    564 ;--------------------------------------------------------
                                    565 	.area HOME    (CODE)
                                    566 	.area GSINIT  (CODE)
                                    567 	.area GSFINAL (CODE)
                                    568 	.area GSINIT  (CODE)
                                    569 ;--------------------------------------------------------
                                    570 ; Home
                                    571 ;--------------------------------------------------------
                                    572 	.area HOME    (CODE)
                                    573 	.area HOME    (CODE)
                                    574 ;--------------------------------------------------------
                                    575 ; code
                                    576 ;--------------------------------------------------------
                                    577 	.area CSEG    (CODE)
                                    578 ;------------------------------------------------------------
                                    579 ;Allocation info for local variables in function 'echo_find'
                                    580 ;------------------------------------------------------------
                                    581 ;TIMEOUT                   Allocated with name '_echo_find_PARM_2'
                                    582 ;keyword                   Allocated to registers r5 r6 r7 
                                    583 ;ch                        Allocated with name '_echo_find_ch_10000_82'
                                    584 ;current_char              Allocated to registers 
                                    585 ;keyword_length            Allocated to registers 
                                    586 ;received                  Allocated with name '_echo_find_received_10000_82'
                                    587 ;------------------------------------------------------------
                                    588 ;	../Firmware/src/WiFi_Module.c:7: int echo_find(char * keyword, int TIMEOUT){
                                    589 ;	-----------------------------------------
                                    590 ;	 function echo_find
                                    591 ;	-----------------------------------------
      001223                        592 _echo_find:
                           000007   593 	ar7 = 0x07
                           000006   594 	ar6 = 0x06
                           000005   595 	ar5 = 0x05
                           000004   596 	ar4 = 0x04
                           000003   597 	ar3 = 0x03
                           000002   598 	ar2 = 0x02
                           000001   599 	ar1 = 0x01
                           000000   600 	ar0 = 0x00
                                    601 ;	../Firmware/src/WiFi_Module.c:10: UINT8 keyword_length = strlen(keyword);
      001223 AD 82            [24]  602 	mov	r5,dpl
      001225 AE 83            [24]  603 	mov	r6,dph
      001227 AF F0            [24]  604 	mov	r7,b
      001229 C0 07            [24]  605 	push	ar7
      00122B C0 06            [24]  606 	push	ar6
      00122D C0 05            [24]  607 	push	ar5
      00122F 12 18 85         [24]  608 	lcall	_strlen
                                    609 ;	../Firmware/src/WiFi_Module.c:11: __xdata unsigned char received[255] = {0};
      001232 90 02 B8         [24]  610 	mov	dptr,#_echo_find_received_10000_82
      001235 E4               [12]  611 	clr	a
      001236 F0               [24]  612 	movx	@dptr,a
      001237 90 02 B9         [24]  613 	mov	dptr,#(_echo_find_received_10000_82 + 0x0001)
      00123A F0               [24]  614 	movx	@dptr,a
      00123B 90 02 BA         [24]  615 	mov	dptr,#(_echo_find_received_10000_82 + 0x0002)
      00123E F0               [24]  616 	movx	@dptr,a
      00123F 90 02 BB         [24]  617 	mov	dptr,#(_echo_find_received_10000_82 + 0x0003)
      001242 F0               [24]  618 	movx	@dptr,a
      001243 90 02 BC         [24]  619 	mov	dptr,#(_echo_find_received_10000_82 + 0x0004)
      001246 F0               [24]  620 	movx	@dptr,a
      001247 90 02 BD         [24]  621 	mov	dptr,#(_echo_find_received_10000_82 + 0x0005)
      00124A F0               [24]  622 	movx	@dptr,a
      00124B 90 02 BE         [24]  623 	mov	dptr,#(_echo_find_received_10000_82 + 0x0006)
      00124E F0               [24]  624 	movx	@dptr,a
      00124F 90 02 BF         [24]  625 	mov	dptr,#(_echo_find_received_10000_82 + 0x0007)
      001252 F0               [24]  626 	movx	@dptr,a
      001253 90 02 C0         [24]  627 	mov	dptr,#(_echo_find_received_10000_82 + 0x0008)
      001256 F0               [24]  628 	movx	@dptr,a
      001257 90 02 C1         [24]  629 	mov	dptr,#(_echo_find_received_10000_82 + 0x0009)
      00125A F0               [24]  630 	movx	@dptr,a
      00125B 90 02 C2         [24]  631 	mov	dptr,#(_echo_find_received_10000_82 + 0x000a)
      00125E F0               [24]  632 	movx	@dptr,a
      00125F 90 02 C3         [24]  633 	mov	dptr,#(_echo_find_received_10000_82 + 0x000b)
      001262 F0               [24]  634 	movx	@dptr,a
      001263 90 02 C4         [24]  635 	mov	dptr,#(_echo_find_received_10000_82 + 0x000c)
      001266 F0               [24]  636 	movx	@dptr,a
      001267 90 02 C5         [24]  637 	mov	dptr,#(_echo_find_received_10000_82 + 0x000d)
      00126A F0               [24]  638 	movx	@dptr,a
      00126B 90 02 C6         [24]  639 	mov	dptr,#(_echo_find_received_10000_82 + 0x000e)
      00126E F0               [24]  640 	movx	@dptr,a
      00126F 90 02 C7         [24]  641 	mov	dptr,#(_echo_find_received_10000_82 + 0x000f)
      001272 F0               [24]  642 	movx	@dptr,a
      001273 90 02 C8         [24]  643 	mov	dptr,#(_echo_find_received_10000_82 + 0x0010)
      001276 F0               [24]  644 	movx	@dptr,a
      001277 90 02 C9         [24]  645 	mov	dptr,#(_echo_find_received_10000_82 + 0x0011)
      00127A F0               [24]  646 	movx	@dptr,a
      00127B 90 02 CA         [24]  647 	mov	dptr,#(_echo_find_received_10000_82 + 0x0012)
      00127E F0               [24]  648 	movx	@dptr,a
      00127F 90 02 CB         [24]  649 	mov	dptr,#(_echo_find_received_10000_82 + 0x0013)
      001282 F0               [24]  650 	movx	@dptr,a
      001283 90 02 CC         [24]  651 	mov	dptr,#(_echo_find_received_10000_82 + 0x0014)
      001286 F0               [24]  652 	movx	@dptr,a
      001287 90 02 CD         [24]  653 	mov	dptr,#(_echo_find_received_10000_82 + 0x0015)
      00128A F0               [24]  654 	movx	@dptr,a
      00128B 90 02 CE         [24]  655 	mov	dptr,#(_echo_find_received_10000_82 + 0x0016)
      00128E F0               [24]  656 	movx	@dptr,a
      00128F 90 02 CF         [24]  657 	mov	dptr,#(_echo_find_received_10000_82 + 0x0017)
      001292 F0               [24]  658 	movx	@dptr,a
      001293 90 02 D0         [24]  659 	mov	dptr,#(_echo_find_received_10000_82 + 0x0018)
      001296 F0               [24]  660 	movx	@dptr,a
      001297 90 02 D1         [24]  661 	mov	dptr,#(_echo_find_received_10000_82 + 0x0019)
      00129A F0               [24]  662 	movx	@dptr,a
      00129B 90 02 D2         [24]  663 	mov	dptr,#(_echo_find_received_10000_82 + 0x001a)
      00129E F0               [24]  664 	movx	@dptr,a
      00129F 90 02 D3         [24]  665 	mov	dptr,#(_echo_find_received_10000_82 + 0x001b)
      0012A2 F0               [24]  666 	movx	@dptr,a
      0012A3 90 02 D4         [24]  667 	mov	dptr,#(_echo_find_received_10000_82 + 0x001c)
      0012A6 F0               [24]  668 	movx	@dptr,a
      0012A7 90 02 D5         [24]  669 	mov	dptr,#(_echo_find_received_10000_82 + 0x001d)
      0012AA F0               [24]  670 	movx	@dptr,a
      0012AB 90 02 D6         [24]  671 	mov	dptr,#(_echo_find_received_10000_82 + 0x001e)
      0012AE F0               [24]  672 	movx	@dptr,a
      0012AF 90 02 D7         [24]  673 	mov	dptr,#(_echo_find_received_10000_82 + 0x001f)
      0012B2 F0               [24]  674 	movx	@dptr,a
      0012B3 90 02 D8         [24]  675 	mov	dptr,#(_echo_find_received_10000_82 + 0x0020)
      0012B6 F0               [24]  676 	movx	@dptr,a
      0012B7 90 02 D9         [24]  677 	mov	dptr,#(_echo_find_received_10000_82 + 0x0021)
      0012BA F0               [24]  678 	movx	@dptr,a
      0012BB 90 02 DA         [24]  679 	mov	dptr,#(_echo_find_received_10000_82 + 0x0022)
      0012BE F0               [24]  680 	movx	@dptr,a
      0012BF 90 02 DB         [24]  681 	mov	dptr,#(_echo_find_received_10000_82 + 0x0023)
      0012C2 F0               [24]  682 	movx	@dptr,a
      0012C3 90 02 DC         [24]  683 	mov	dptr,#(_echo_find_received_10000_82 + 0x0024)
      0012C6 F0               [24]  684 	movx	@dptr,a
      0012C7 90 02 DD         [24]  685 	mov	dptr,#(_echo_find_received_10000_82 + 0x0025)
      0012CA F0               [24]  686 	movx	@dptr,a
      0012CB 90 02 DE         [24]  687 	mov	dptr,#(_echo_find_received_10000_82 + 0x0026)
      0012CE F0               [24]  688 	movx	@dptr,a
      0012CF 90 02 DF         [24]  689 	mov	dptr,#(_echo_find_received_10000_82 + 0x0027)
      0012D2 F0               [24]  690 	movx	@dptr,a
      0012D3 90 02 E0         [24]  691 	mov	dptr,#(_echo_find_received_10000_82 + 0x0028)
      0012D6 F0               [24]  692 	movx	@dptr,a
      0012D7 90 02 E1         [24]  693 	mov	dptr,#(_echo_find_received_10000_82 + 0x0029)
      0012DA F0               [24]  694 	movx	@dptr,a
      0012DB 90 02 E2         [24]  695 	mov	dptr,#(_echo_find_received_10000_82 + 0x002a)
      0012DE F0               [24]  696 	movx	@dptr,a
      0012DF 90 02 E3         [24]  697 	mov	dptr,#(_echo_find_received_10000_82 + 0x002b)
      0012E2 F0               [24]  698 	movx	@dptr,a
      0012E3 90 02 E4         [24]  699 	mov	dptr,#(_echo_find_received_10000_82 + 0x002c)
      0012E6 F0               [24]  700 	movx	@dptr,a
      0012E7 90 02 E5         [24]  701 	mov	dptr,#(_echo_find_received_10000_82 + 0x002d)
      0012EA F0               [24]  702 	movx	@dptr,a
      0012EB 90 02 E6         [24]  703 	mov	dptr,#(_echo_find_received_10000_82 + 0x002e)
      0012EE F0               [24]  704 	movx	@dptr,a
      0012EF 90 02 E7         [24]  705 	mov	dptr,#(_echo_find_received_10000_82 + 0x002f)
      0012F2 F0               [24]  706 	movx	@dptr,a
      0012F3 90 02 E8         [24]  707 	mov	dptr,#(_echo_find_received_10000_82 + 0x0030)
      0012F6 F0               [24]  708 	movx	@dptr,a
      0012F7 90 02 E9         [24]  709 	mov	dptr,#(_echo_find_received_10000_82 + 0x0031)
      0012FA F0               [24]  710 	movx	@dptr,a
      0012FB 90 02 EA         [24]  711 	mov	dptr,#(_echo_find_received_10000_82 + 0x0032)
      0012FE F0               [24]  712 	movx	@dptr,a
      0012FF 90 02 EB         [24]  713 	mov	dptr,#(_echo_find_received_10000_82 + 0x0033)
      001302 F0               [24]  714 	movx	@dptr,a
      001303 90 02 EC         [24]  715 	mov	dptr,#(_echo_find_received_10000_82 + 0x0034)
      001306 F0               [24]  716 	movx	@dptr,a
      001307 90 02 ED         [24]  717 	mov	dptr,#(_echo_find_received_10000_82 + 0x0035)
      00130A F0               [24]  718 	movx	@dptr,a
      00130B 90 02 EE         [24]  719 	mov	dptr,#(_echo_find_received_10000_82 + 0x0036)
      00130E F0               [24]  720 	movx	@dptr,a
      00130F 90 02 EF         [24]  721 	mov	dptr,#(_echo_find_received_10000_82 + 0x0037)
      001312 F0               [24]  722 	movx	@dptr,a
      001313 90 02 F0         [24]  723 	mov	dptr,#(_echo_find_received_10000_82 + 0x0038)
      001316 F0               [24]  724 	movx	@dptr,a
      001317 90 02 F1         [24]  725 	mov	dptr,#(_echo_find_received_10000_82 + 0x0039)
      00131A F0               [24]  726 	movx	@dptr,a
      00131B 90 02 F2         [24]  727 	mov	dptr,#(_echo_find_received_10000_82 + 0x003a)
      00131E F0               [24]  728 	movx	@dptr,a
      00131F 90 02 F3         [24]  729 	mov	dptr,#(_echo_find_received_10000_82 + 0x003b)
      001322 F0               [24]  730 	movx	@dptr,a
      001323 90 02 F4         [24]  731 	mov	dptr,#(_echo_find_received_10000_82 + 0x003c)
      001326 F0               [24]  732 	movx	@dptr,a
      001327 90 02 F5         [24]  733 	mov	dptr,#(_echo_find_received_10000_82 + 0x003d)
      00132A F0               [24]  734 	movx	@dptr,a
      00132B 90 02 F6         [24]  735 	mov	dptr,#(_echo_find_received_10000_82 + 0x003e)
      00132E F0               [24]  736 	movx	@dptr,a
      00132F 90 02 F7         [24]  737 	mov	dptr,#(_echo_find_received_10000_82 + 0x003f)
      001332 F0               [24]  738 	movx	@dptr,a
      001333 90 02 F8         [24]  739 	mov	dptr,#(_echo_find_received_10000_82 + 0x0040)
      001336 F0               [24]  740 	movx	@dptr,a
      001337 90 02 F9         [24]  741 	mov	dptr,#(_echo_find_received_10000_82 + 0x0041)
      00133A F0               [24]  742 	movx	@dptr,a
      00133B 90 02 FA         [24]  743 	mov	dptr,#(_echo_find_received_10000_82 + 0x0042)
      00133E F0               [24]  744 	movx	@dptr,a
      00133F 90 02 FB         [24]  745 	mov	dptr,#(_echo_find_received_10000_82 + 0x0043)
      001342 F0               [24]  746 	movx	@dptr,a
      001343 90 02 FC         [24]  747 	mov	dptr,#(_echo_find_received_10000_82 + 0x0044)
      001346 F0               [24]  748 	movx	@dptr,a
      001347 90 02 FD         [24]  749 	mov	dptr,#(_echo_find_received_10000_82 + 0x0045)
      00134A F0               [24]  750 	movx	@dptr,a
      00134B 90 02 FE         [24]  751 	mov	dptr,#(_echo_find_received_10000_82 + 0x0046)
      00134E F0               [24]  752 	movx	@dptr,a
      00134F 90 02 FF         [24]  753 	mov	dptr,#(_echo_find_received_10000_82 + 0x0047)
      001352 F0               [24]  754 	movx	@dptr,a
      001353 90 03 00         [24]  755 	mov	dptr,#(_echo_find_received_10000_82 + 0x0048)
      001356 F0               [24]  756 	movx	@dptr,a
      001357 90 03 01         [24]  757 	mov	dptr,#(_echo_find_received_10000_82 + 0x0049)
      00135A F0               [24]  758 	movx	@dptr,a
      00135B 90 03 02         [24]  759 	mov	dptr,#(_echo_find_received_10000_82 + 0x004a)
      00135E F0               [24]  760 	movx	@dptr,a
      00135F 90 03 03         [24]  761 	mov	dptr,#(_echo_find_received_10000_82 + 0x004b)
      001362 F0               [24]  762 	movx	@dptr,a
      001363 90 03 04         [24]  763 	mov	dptr,#(_echo_find_received_10000_82 + 0x004c)
      001366 F0               [24]  764 	movx	@dptr,a
      001367 90 03 05         [24]  765 	mov	dptr,#(_echo_find_received_10000_82 + 0x004d)
      00136A F0               [24]  766 	movx	@dptr,a
      00136B 90 03 06         [24]  767 	mov	dptr,#(_echo_find_received_10000_82 + 0x004e)
      00136E F0               [24]  768 	movx	@dptr,a
      00136F 90 03 07         [24]  769 	mov	dptr,#(_echo_find_received_10000_82 + 0x004f)
      001372 F0               [24]  770 	movx	@dptr,a
      001373 90 03 08         [24]  771 	mov	dptr,#(_echo_find_received_10000_82 + 0x0050)
      001376 F0               [24]  772 	movx	@dptr,a
      001377 90 03 09         [24]  773 	mov	dptr,#(_echo_find_received_10000_82 + 0x0051)
      00137A F0               [24]  774 	movx	@dptr,a
      00137B 90 03 0A         [24]  775 	mov	dptr,#(_echo_find_received_10000_82 + 0x0052)
      00137E F0               [24]  776 	movx	@dptr,a
      00137F 90 03 0B         [24]  777 	mov	dptr,#(_echo_find_received_10000_82 + 0x0053)
      001382 F0               [24]  778 	movx	@dptr,a
      001383 90 03 0C         [24]  779 	mov	dptr,#(_echo_find_received_10000_82 + 0x0054)
      001386 F0               [24]  780 	movx	@dptr,a
      001387 90 03 0D         [24]  781 	mov	dptr,#(_echo_find_received_10000_82 + 0x0055)
      00138A F0               [24]  782 	movx	@dptr,a
      00138B 90 03 0E         [24]  783 	mov	dptr,#(_echo_find_received_10000_82 + 0x0056)
      00138E F0               [24]  784 	movx	@dptr,a
      00138F 90 03 0F         [24]  785 	mov	dptr,#(_echo_find_received_10000_82 + 0x0057)
      001392 F0               [24]  786 	movx	@dptr,a
      001393 90 03 10         [24]  787 	mov	dptr,#(_echo_find_received_10000_82 + 0x0058)
      001396 F0               [24]  788 	movx	@dptr,a
      001397 90 03 11         [24]  789 	mov	dptr,#(_echo_find_received_10000_82 + 0x0059)
      00139A F0               [24]  790 	movx	@dptr,a
      00139B 90 03 12         [24]  791 	mov	dptr,#(_echo_find_received_10000_82 + 0x005a)
      00139E F0               [24]  792 	movx	@dptr,a
      00139F 90 03 13         [24]  793 	mov	dptr,#(_echo_find_received_10000_82 + 0x005b)
      0013A2 F0               [24]  794 	movx	@dptr,a
      0013A3 90 03 14         [24]  795 	mov	dptr,#(_echo_find_received_10000_82 + 0x005c)
      0013A6 F0               [24]  796 	movx	@dptr,a
      0013A7 90 03 15         [24]  797 	mov	dptr,#(_echo_find_received_10000_82 + 0x005d)
      0013AA F0               [24]  798 	movx	@dptr,a
      0013AB 90 03 16         [24]  799 	mov	dptr,#(_echo_find_received_10000_82 + 0x005e)
      0013AE F0               [24]  800 	movx	@dptr,a
      0013AF 90 03 17         [24]  801 	mov	dptr,#(_echo_find_received_10000_82 + 0x005f)
      0013B2 F0               [24]  802 	movx	@dptr,a
      0013B3 90 03 18         [24]  803 	mov	dptr,#(_echo_find_received_10000_82 + 0x0060)
      0013B6 F0               [24]  804 	movx	@dptr,a
      0013B7 90 03 19         [24]  805 	mov	dptr,#(_echo_find_received_10000_82 + 0x0061)
      0013BA F0               [24]  806 	movx	@dptr,a
      0013BB 90 03 1A         [24]  807 	mov	dptr,#(_echo_find_received_10000_82 + 0x0062)
      0013BE F0               [24]  808 	movx	@dptr,a
      0013BF 90 03 1B         [24]  809 	mov	dptr,#(_echo_find_received_10000_82 + 0x0063)
      0013C2 F0               [24]  810 	movx	@dptr,a
      0013C3 90 03 1C         [24]  811 	mov	dptr,#(_echo_find_received_10000_82 + 0x0064)
      0013C6 F0               [24]  812 	movx	@dptr,a
      0013C7 90 03 1D         [24]  813 	mov	dptr,#(_echo_find_received_10000_82 + 0x0065)
      0013CA F0               [24]  814 	movx	@dptr,a
      0013CB 90 03 1E         [24]  815 	mov	dptr,#(_echo_find_received_10000_82 + 0x0066)
      0013CE F0               [24]  816 	movx	@dptr,a
      0013CF 90 03 1F         [24]  817 	mov	dptr,#(_echo_find_received_10000_82 + 0x0067)
      0013D2 F0               [24]  818 	movx	@dptr,a
      0013D3 90 03 20         [24]  819 	mov	dptr,#(_echo_find_received_10000_82 + 0x0068)
      0013D6 F0               [24]  820 	movx	@dptr,a
      0013D7 90 03 21         [24]  821 	mov	dptr,#(_echo_find_received_10000_82 + 0x0069)
      0013DA F0               [24]  822 	movx	@dptr,a
      0013DB 90 03 22         [24]  823 	mov	dptr,#(_echo_find_received_10000_82 + 0x006a)
      0013DE F0               [24]  824 	movx	@dptr,a
      0013DF 90 03 23         [24]  825 	mov	dptr,#(_echo_find_received_10000_82 + 0x006b)
      0013E2 F0               [24]  826 	movx	@dptr,a
      0013E3 90 03 24         [24]  827 	mov	dptr,#(_echo_find_received_10000_82 + 0x006c)
      0013E6 F0               [24]  828 	movx	@dptr,a
      0013E7 90 03 25         [24]  829 	mov	dptr,#(_echo_find_received_10000_82 + 0x006d)
      0013EA F0               [24]  830 	movx	@dptr,a
      0013EB 90 03 26         [24]  831 	mov	dptr,#(_echo_find_received_10000_82 + 0x006e)
      0013EE F0               [24]  832 	movx	@dptr,a
      0013EF 90 03 27         [24]  833 	mov	dptr,#(_echo_find_received_10000_82 + 0x006f)
      0013F2 F0               [24]  834 	movx	@dptr,a
      0013F3 90 03 28         [24]  835 	mov	dptr,#(_echo_find_received_10000_82 + 0x0070)
      0013F6 F0               [24]  836 	movx	@dptr,a
      0013F7 90 03 29         [24]  837 	mov	dptr,#(_echo_find_received_10000_82 + 0x0071)
      0013FA F0               [24]  838 	movx	@dptr,a
      0013FB 90 03 2A         [24]  839 	mov	dptr,#(_echo_find_received_10000_82 + 0x0072)
      0013FE F0               [24]  840 	movx	@dptr,a
      0013FF 90 03 2B         [24]  841 	mov	dptr,#(_echo_find_received_10000_82 + 0x0073)
      001402 F0               [24]  842 	movx	@dptr,a
      001403 90 03 2C         [24]  843 	mov	dptr,#(_echo_find_received_10000_82 + 0x0074)
      001406 F0               [24]  844 	movx	@dptr,a
      001407 90 03 2D         [24]  845 	mov	dptr,#(_echo_find_received_10000_82 + 0x0075)
      00140A F0               [24]  846 	movx	@dptr,a
      00140B 90 03 2E         [24]  847 	mov	dptr,#(_echo_find_received_10000_82 + 0x0076)
      00140E F0               [24]  848 	movx	@dptr,a
      00140F 90 03 2F         [24]  849 	mov	dptr,#(_echo_find_received_10000_82 + 0x0077)
      001412 F0               [24]  850 	movx	@dptr,a
      001413 90 03 30         [24]  851 	mov	dptr,#(_echo_find_received_10000_82 + 0x0078)
      001416 F0               [24]  852 	movx	@dptr,a
      001417 90 03 31         [24]  853 	mov	dptr,#(_echo_find_received_10000_82 + 0x0079)
      00141A F0               [24]  854 	movx	@dptr,a
      00141B 90 03 32         [24]  855 	mov	dptr,#(_echo_find_received_10000_82 + 0x007a)
      00141E F0               [24]  856 	movx	@dptr,a
      00141F 90 03 33         [24]  857 	mov	dptr,#(_echo_find_received_10000_82 + 0x007b)
      001422 F0               [24]  858 	movx	@dptr,a
      001423 90 03 34         [24]  859 	mov	dptr,#(_echo_find_received_10000_82 + 0x007c)
      001426 F0               [24]  860 	movx	@dptr,a
      001427 90 03 35         [24]  861 	mov	dptr,#(_echo_find_received_10000_82 + 0x007d)
      00142A F0               [24]  862 	movx	@dptr,a
      00142B 90 03 36         [24]  863 	mov	dptr,#(_echo_find_received_10000_82 + 0x007e)
      00142E F0               [24]  864 	movx	@dptr,a
      00142F 90 03 37         [24]  865 	mov	dptr,#(_echo_find_received_10000_82 + 0x007f)
      001432 F0               [24]  866 	movx	@dptr,a
      001433 90 03 38         [24]  867 	mov	dptr,#(_echo_find_received_10000_82 + 0x0080)
      001436 F0               [24]  868 	movx	@dptr,a
      001437 90 03 39         [24]  869 	mov	dptr,#(_echo_find_received_10000_82 + 0x0081)
      00143A F0               [24]  870 	movx	@dptr,a
      00143B 90 03 3A         [24]  871 	mov	dptr,#(_echo_find_received_10000_82 + 0x0082)
      00143E F0               [24]  872 	movx	@dptr,a
      00143F 90 03 3B         [24]  873 	mov	dptr,#(_echo_find_received_10000_82 + 0x0083)
      001442 F0               [24]  874 	movx	@dptr,a
      001443 90 03 3C         [24]  875 	mov	dptr,#(_echo_find_received_10000_82 + 0x0084)
      001446 F0               [24]  876 	movx	@dptr,a
      001447 90 03 3D         [24]  877 	mov	dptr,#(_echo_find_received_10000_82 + 0x0085)
      00144A F0               [24]  878 	movx	@dptr,a
      00144B 90 03 3E         [24]  879 	mov	dptr,#(_echo_find_received_10000_82 + 0x0086)
      00144E F0               [24]  880 	movx	@dptr,a
      00144F 90 03 3F         [24]  881 	mov	dptr,#(_echo_find_received_10000_82 + 0x0087)
      001452 F0               [24]  882 	movx	@dptr,a
      001453 90 03 40         [24]  883 	mov	dptr,#(_echo_find_received_10000_82 + 0x0088)
      001456 F0               [24]  884 	movx	@dptr,a
      001457 90 03 41         [24]  885 	mov	dptr,#(_echo_find_received_10000_82 + 0x0089)
      00145A F0               [24]  886 	movx	@dptr,a
      00145B 90 03 42         [24]  887 	mov	dptr,#(_echo_find_received_10000_82 + 0x008a)
      00145E F0               [24]  888 	movx	@dptr,a
      00145F 90 03 43         [24]  889 	mov	dptr,#(_echo_find_received_10000_82 + 0x008b)
      001462 F0               [24]  890 	movx	@dptr,a
      001463 90 03 44         [24]  891 	mov	dptr,#(_echo_find_received_10000_82 + 0x008c)
      001466 F0               [24]  892 	movx	@dptr,a
      001467 90 03 45         [24]  893 	mov	dptr,#(_echo_find_received_10000_82 + 0x008d)
      00146A F0               [24]  894 	movx	@dptr,a
      00146B 90 03 46         [24]  895 	mov	dptr,#(_echo_find_received_10000_82 + 0x008e)
      00146E F0               [24]  896 	movx	@dptr,a
      00146F 90 03 47         [24]  897 	mov	dptr,#(_echo_find_received_10000_82 + 0x008f)
      001472 F0               [24]  898 	movx	@dptr,a
      001473 90 03 48         [24]  899 	mov	dptr,#(_echo_find_received_10000_82 + 0x0090)
      001476 F0               [24]  900 	movx	@dptr,a
      001477 90 03 49         [24]  901 	mov	dptr,#(_echo_find_received_10000_82 + 0x0091)
      00147A F0               [24]  902 	movx	@dptr,a
      00147B 90 03 4A         [24]  903 	mov	dptr,#(_echo_find_received_10000_82 + 0x0092)
      00147E F0               [24]  904 	movx	@dptr,a
      00147F 90 03 4B         [24]  905 	mov	dptr,#(_echo_find_received_10000_82 + 0x0093)
      001482 F0               [24]  906 	movx	@dptr,a
      001483 90 03 4C         [24]  907 	mov	dptr,#(_echo_find_received_10000_82 + 0x0094)
      001486 F0               [24]  908 	movx	@dptr,a
      001487 90 03 4D         [24]  909 	mov	dptr,#(_echo_find_received_10000_82 + 0x0095)
      00148A F0               [24]  910 	movx	@dptr,a
      00148B 90 03 4E         [24]  911 	mov	dptr,#(_echo_find_received_10000_82 + 0x0096)
      00148E F0               [24]  912 	movx	@dptr,a
      00148F 90 03 4F         [24]  913 	mov	dptr,#(_echo_find_received_10000_82 + 0x0097)
      001492 F0               [24]  914 	movx	@dptr,a
      001493 90 03 50         [24]  915 	mov	dptr,#(_echo_find_received_10000_82 + 0x0098)
      001496 F0               [24]  916 	movx	@dptr,a
      001497 90 03 51         [24]  917 	mov	dptr,#(_echo_find_received_10000_82 + 0x0099)
      00149A F0               [24]  918 	movx	@dptr,a
      00149B 90 03 52         [24]  919 	mov	dptr,#(_echo_find_received_10000_82 + 0x009a)
      00149E F0               [24]  920 	movx	@dptr,a
      00149F 90 03 53         [24]  921 	mov	dptr,#(_echo_find_received_10000_82 + 0x009b)
      0014A2 F0               [24]  922 	movx	@dptr,a
      0014A3 90 03 54         [24]  923 	mov	dptr,#(_echo_find_received_10000_82 + 0x009c)
      0014A6 F0               [24]  924 	movx	@dptr,a
      0014A7 90 03 55         [24]  925 	mov	dptr,#(_echo_find_received_10000_82 + 0x009d)
      0014AA F0               [24]  926 	movx	@dptr,a
      0014AB 90 03 56         [24]  927 	mov	dptr,#(_echo_find_received_10000_82 + 0x009e)
      0014AE F0               [24]  928 	movx	@dptr,a
      0014AF 90 03 57         [24]  929 	mov	dptr,#(_echo_find_received_10000_82 + 0x009f)
      0014B2 F0               [24]  930 	movx	@dptr,a
      0014B3 90 03 58         [24]  931 	mov	dptr,#(_echo_find_received_10000_82 + 0x00a0)
      0014B6 F0               [24]  932 	movx	@dptr,a
      0014B7 90 03 59         [24]  933 	mov	dptr,#(_echo_find_received_10000_82 + 0x00a1)
      0014BA F0               [24]  934 	movx	@dptr,a
      0014BB 90 03 5A         [24]  935 	mov	dptr,#(_echo_find_received_10000_82 + 0x00a2)
      0014BE F0               [24]  936 	movx	@dptr,a
      0014BF 90 03 5B         [24]  937 	mov	dptr,#(_echo_find_received_10000_82 + 0x00a3)
      0014C2 F0               [24]  938 	movx	@dptr,a
      0014C3 90 03 5C         [24]  939 	mov	dptr,#(_echo_find_received_10000_82 + 0x00a4)
      0014C6 F0               [24]  940 	movx	@dptr,a
      0014C7 90 03 5D         [24]  941 	mov	dptr,#(_echo_find_received_10000_82 + 0x00a5)
      0014CA F0               [24]  942 	movx	@dptr,a
      0014CB 90 03 5E         [24]  943 	mov	dptr,#(_echo_find_received_10000_82 + 0x00a6)
      0014CE F0               [24]  944 	movx	@dptr,a
      0014CF 90 03 5F         [24]  945 	mov	dptr,#(_echo_find_received_10000_82 + 0x00a7)
      0014D2 F0               [24]  946 	movx	@dptr,a
      0014D3 90 03 60         [24]  947 	mov	dptr,#(_echo_find_received_10000_82 + 0x00a8)
      0014D6 F0               [24]  948 	movx	@dptr,a
      0014D7 90 03 61         [24]  949 	mov	dptr,#(_echo_find_received_10000_82 + 0x00a9)
      0014DA F0               [24]  950 	movx	@dptr,a
      0014DB 90 03 62         [24]  951 	mov	dptr,#(_echo_find_received_10000_82 + 0x00aa)
      0014DE F0               [24]  952 	movx	@dptr,a
      0014DF 90 03 63         [24]  953 	mov	dptr,#(_echo_find_received_10000_82 + 0x00ab)
      0014E2 F0               [24]  954 	movx	@dptr,a
      0014E3 90 03 64         [24]  955 	mov	dptr,#(_echo_find_received_10000_82 + 0x00ac)
      0014E6 F0               [24]  956 	movx	@dptr,a
      0014E7 90 03 65         [24]  957 	mov	dptr,#(_echo_find_received_10000_82 + 0x00ad)
      0014EA F0               [24]  958 	movx	@dptr,a
      0014EB 90 03 66         [24]  959 	mov	dptr,#(_echo_find_received_10000_82 + 0x00ae)
      0014EE F0               [24]  960 	movx	@dptr,a
      0014EF 90 03 67         [24]  961 	mov	dptr,#(_echo_find_received_10000_82 + 0x00af)
      0014F2 F0               [24]  962 	movx	@dptr,a
      0014F3 90 03 68         [24]  963 	mov	dptr,#(_echo_find_received_10000_82 + 0x00b0)
      0014F6 F0               [24]  964 	movx	@dptr,a
      0014F7 90 03 69         [24]  965 	mov	dptr,#(_echo_find_received_10000_82 + 0x00b1)
      0014FA F0               [24]  966 	movx	@dptr,a
      0014FB 90 03 6A         [24]  967 	mov	dptr,#(_echo_find_received_10000_82 + 0x00b2)
      0014FE F0               [24]  968 	movx	@dptr,a
      0014FF 90 03 6B         [24]  969 	mov	dptr,#(_echo_find_received_10000_82 + 0x00b3)
      001502 F0               [24]  970 	movx	@dptr,a
      001503 90 03 6C         [24]  971 	mov	dptr,#(_echo_find_received_10000_82 + 0x00b4)
      001506 F0               [24]  972 	movx	@dptr,a
      001507 90 03 6D         [24]  973 	mov	dptr,#(_echo_find_received_10000_82 + 0x00b5)
      00150A F0               [24]  974 	movx	@dptr,a
      00150B 90 03 6E         [24]  975 	mov	dptr,#(_echo_find_received_10000_82 + 0x00b6)
      00150E F0               [24]  976 	movx	@dptr,a
      00150F 90 03 6F         [24]  977 	mov	dptr,#(_echo_find_received_10000_82 + 0x00b7)
      001512 F0               [24]  978 	movx	@dptr,a
      001513 90 03 70         [24]  979 	mov	dptr,#(_echo_find_received_10000_82 + 0x00b8)
      001516 F0               [24]  980 	movx	@dptr,a
      001517 90 03 71         [24]  981 	mov	dptr,#(_echo_find_received_10000_82 + 0x00b9)
      00151A F0               [24]  982 	movx	@dptr,a
      00151B 90 03 72         [24]  983 	mov	dptr,#(_echo_find_received_10000_82 + 0x00ba)
      00151E F0               [24]  984 	movx	@dptr,a
      00151F 90 03 73         [24]  985 	mov	dptr,#(_echo_find_received_10000_82 + 0x00bb)
      001522 F0               [24]  986 	movx	@dptr,a
      001523 90 03 74         [24]  987 	mov	dptr,#(_echo_find_received_10000_82 + 0x00bc)
      001526 F0               [24]  988 	movx	@dptr,a
      001527 90 03 75         [24]  989 	mov	dptr,#(_echo_find_received_10000_82 + 0x00bd)
      00152A F0               [24]  990 	movx	@dptr,a
      00152B 90 03 76         [24]  991 	mov	dptr,#(_echo_find_received_10000_82 + 0x00be)
      00152E F0               [24]  992 	movx	@dptr,a
      00152F 90 03 77         [24]  993 	mov	dptr,#(_echo_find_received_10000_82 + 0x00bf)
      001532 F0               [24]  994 	movx	@dptr,a
      001533 90 03 78         [24]  995 	mov	dptr,#(_echo_find_received_10000_82 + 0x00c0)
      001536 F0               [24]  996 	movx	@dptr,a
      001537 90 03 79         [24]  997 	mov	dptr,#(_echo_find_received_10000_82 + 0x00c1)
      00153A F0               [24]  998 	movx	@dptr,a
      00153B 90 03 7A         [24]  999 	mov	dptr,#(_echo_find_received_10000_82 + 0x00c2)
      00153E F0               [24] 1000 	movx	@dptr,a
      00153F 90 03 7B         [24] 1001 	mov	dptr,#(_echo_find_received_10000_82 + 0x00c3)
      001542 F0               [24] 1002 	movx	@dptr,a
      001543 90 03 7C         [24] 1003 	mov	dptr,#(_echo_find_received_10000_82 + 0x00c4)
      001546 F0               [24] 1004 	movx	@dptr,a
      001547 90 03 7D         [24] 1005 	mov	dptr,#(_echo_find_received_10000_82 + 0x00c5)
      00154A F0               [24] 1006 	movx	@dptr,a
      00154B 90 03 7E         [24] 1007 	mov	dptr,#(_echo_find_received_10000_82 + 0x00c6)
      00154E F0               [24] 1008 	movx	@dptr,a
      00154F 90 03 7F         [24] 1009 	mov	dptr,#(_echo_find_received_10000_82 + 0x00c7)
      001552 F0               [24] 1010 	movx	@dptr,a
      001553 90 03 80         [24] 1011 	mov	dptr,#(_echo_find_received_10000_82 + 0x00c8)
      001556 F0               [24] 1012 	movx	@dptr,a
      001557 90 03 81         [24] 1013 	mov	dptr,#(_echo_find_received_10000_82 + 0x00c9)
      00155A F0               [24] 1014 	movx	@dptr,a
      00155B 90 03 82         [24] 1015 	mov	dptr,#(_echo_find_received_10000_82 + 0x00ca)
      00155E F0               [24] 1016 	movx	@dptr,a
      00155F 90 03 83         [24] 1017 	mov	dptr,#(_echo_find_received_10000_82 + 0x00cb)
      001562 F0               [24] 1018 	movx	@dptr,a
      001563 90 03 84         [24] 1019 	mov	dptr,#(_echo_find_received_10000_82 + 0x00cc)
      001566 F0               [24] 1020 	movx	@dptr,a
      001567 90 03 85         [24] 1021 	mov	dptr,#(_echo_find_received_10000_82 + 0x00cd)
      00156A F0               [24] 1022 	movx	@dptr,a
      00156B 90 03 86         [24] 1023 	mov	dptr,#(_echo_find_received_10000_82 + 0x00ce)
      00156E F0               [24] 1024 	movx	@dptr,a
      00156F 90 03 87         [24] 1025 	mov	dptr,#(_echo_find_received_10000_82 + 0x00cf)
      001572 F0               [24] 1026 	movx	@dptr,a
      001573 90 03 88         [24] 1027 	mov	dptr,#(_echo_find_received_10000_82 + 0x00d0)
      001576 F0               [24] 1028 	movx	@dptr,a
      001577 90 03 89         [24] 1029 	mov	dptr,#(_echo_find_received_10000_82 + 0x00d1)
      00157A F0               [24] 1030 	movx	@dptr,a
      00157B 90 03 8A         [24] 1031 	mov	dptr,#(_echo_find_received_10000_82 + 0x00d2)
      00157E F0               [24] 1032 	movx	@dptr,a
      00157F 90 03 8B         [24] 1033 	mov	dptr,#(_echo_find_received_10000_82 + 0x00d3)
      001582 F0               [24] 1034 	movx	@dptr,a
      001583 90 03 8C         [24] 1035 	mov	dptr,#(_echo_find_received_10000_82 + 0x00d4)
      001586 F0               [24] 1036 	movx	@dptr,a
      001587 90 03 8D         [24] 1037 	mov	dptr,#(_echo_find_received_10000_82 + 0x00d5)
      00158A F0               [24] 1038 	movx	@dptr,a
      00158B 90 03 8E         [24] 1039 	mov	dptr,#(_echo_find_received_10000_82 + 0x00d6)
      00158E F0               [24] 1040 	movx	@dptr,a
      00158F 90 03 8F         [24] 1041 	mov	dptr,#(_echo_find_received_10000_82 + 0x00d7)
      001592 F0               [24] 1042 	movx	@dptr,a
      001593 90 03 90         [24] 1043 	mov	dptr,#(_echo_find_received_10000_82 + 0x00d8)
      001596 F0               [24] 1044 	movx	@dptr,a
      001597 90 03 91         [24] 1045 	mov	dptr,#(_echo_find_received_10000_82 + 0x00d9)
      00159A F0               [24] 1046 	movx	@dptr,a
      00159B 90 03 92         [24] 1047 	mov	dptr,#(_echo_find_received_10000_82 + 0x00da)
      00159E F0               [24] 1048 	movx	@dptr,a
      00159F 90 03 93         [24] 1049 	mov	dptr,#(_echo_find_received_10000_82 + 0x00db)
      0015A2 F0               [24] 1050 	movx	@dptr,a
      0015A3 90 03 94         [24] 1051 	mov	dptr,#(_echo_find_received_10000_82 + 0x00dc)
      0015A6 F0               [24] 1052 	movx	@dptr,a
      0015A7 90 03 95         [24] 1053 	mov	dptr,#(_echo_find_received_10000_82 + 0x00dd)
      0015AA F0               [24] 1054 	movx	@dptr,a
      0015AB 90 03 96         [24] 1055 	mov	dptr,#(_echo_find_received_10000_82 + 0x00de)
      0015AE F0               [24] 1056 	movx	@dptr,a
      0015AF 90 03 97         [24] 1057 	mov	dptr,#(_echo_find_received_10000_82 + 0x00df)
      0015B2 F0               [24] 1058 	movx	@dptr,a
      0015B3 90 03 98         [24] 1059 	mov	dptr,#(_echo_find_received_10000_82 + 0x00e0)
      0015B6 F0               [24] 1060 	movx	@dptr,a
      0015B7 90 03 99         [24] 1061 	mov	dptr,#(_echo_find_received_10000_82 + 0x00e1)
      0015BA F0               [24] 1062 	movx	@dptr,a
      0015BB 90 03 9A         [24] 1063 	mov	dptr,#(_echo_find_received_10000_82 + 0x00e2)
      0015BE F0               [24] 1064 	movx	@dptr,a
      0015BF 90 03 9B         [24] 1065 	mov	dptr,#(_echo_find_received_10000_82 + 0x00e3)
      0015C2 F0               [24] 1066 	movx	@dptr,a
      0015C3 90 03 9C         [24] 1067 	mov	dptr,#(_echo_find_received_10000_82 + 0x00e4)
      0015C6 F0               [24] 1068 	movx	@dptr,a
      0015C7 90 03 9D         [24] 1069 	mov	dptr,#(_echo_find_received_10000_82 + 0x00e5)
      0015CA F0               [24] 1070 	movx	@dptr,a
      0015CB 90 03 9E         [24] 1071 	mov	dptr,#(_echo_find_received_10000_82 + 0x00e6)
      0015CE F0               [24] 1072 	movx	@dptr,a
      0015CF 90 03 9F         [24] 1073 	mov	dptr,#(_echo_find_received_10000_82 + 0x00e7)
      0015D2 F0               [24] 1074 	movx	@dptr,a
      0015D3 90 03 A0         [24] 1075 	mov	dptr,#(_echo_find_received_10000_82 + 0x00e8)
      0015D6 F0               [24] 1076 	movx	@dptr,a
      0015D7 90 03 A1         [24] 1077 	mov	dptr,#(_echo_find_received_10000_82 + 0x00e9)
      0015DA F0               [24] 1078 	movx	@dptr,a
      0015DB 90 03 A2         [24] 1079 	mov	dptr,#(_echo_find_received_10000_82 + 0x00ea)
      0015DE F0               [24] 1080 	movx	@dptr,a
      0015DF 90 03 A3         [24] 1081 	mov	dptr,#(_echo_find_received_10000_82 + 0x00eb)
      0015E2 F0               [24] 1082 	movx	@dptr,a
      0015E3 90 03 A4         [24] 1083 	mov	dptr,#(_echo_find_received_10000_82 + 0x00ec)
      0015E6 F0               [24] 1084 	movx	@dptr,a
      0015E7 90 03 A5         [24] 1085 	mov	dptr,#(_echo_find_received_10000_82 + 0x00ed)
      0015EA F0               [24] 1086 	movx	@dptr,a
      0015EB 90 03 A6         [24] 1087 	mov	dptr,#(_echo_find_received_10000_82 + 0x00ee)
      0015EE F0               [24] 1088 	movx	@dptr,a
      0015EF 90 03 A7         [24] 1089 	mov	dptr,#(_echo_find_received_10000_82 + 0x00ef)
      0015F2 F0               [24] 1090 	movx	@dptr,a
      0015F3 90 03 A8         [24] 1091 	mov	dptr,#(_echo_find_received_10000_82 + 0x00f0)
      0015F6 F0               [24] 1092 	movx	@dptr,a
      0015F7 90 03 A9         [24] 1093 	mov	dptr,#(_echo_find_received_10000_82 + 0x00f1)
      0015FA F0               [24] 1094 	movx	@dptr,a
      0015FB 90 03 AA         [24] 1095 	mov	dptr,#(_echo_find_received_10000_82 + 0x00f2)
      0015FE F0               [24] 1096 	movx	@dptr,a
      0015FF 90 03 AB         [24] 1097 	mov	dptr,#(_echo_find_received_10000_82 + 0x00f3)
      001602 F0               [24] 1098 	movx	@dptr,a
      001603 90 03 AC         [24] 1099 	mov	dptr,#(_echo_find_received_10000_82 + 0x00f4)
      001606 F0               [24] 1100 	movx	@dptr,a
      001607 90 03 AD         [24] 1101 	mov	dptr,#(_echo_find_received_10000_82 + 0x00f5)
      00160A F0               [24] 1102 	movx	@dptr,a
      00160B 90 03 AE         [24] 1103 	mov	dptr,#(_echo_find_received_10000_82 + 0x00f6)
      00160E F0               [24] 1104 	movx	@dptr,a
      00160F 90 03 AF         [24] 1105 	mov	dptr,#(_echo_find_received_10000_82 + 0x00f7)
      001612 F0               [24] 1106 	movx	@dptr,a
      001613 90 03 B0         [24] 1107 	mov	dptr,#(_echo_find_received_10000_82 + 0x00f8)
      001616 F0               [24] 1108 	movx	@dptr,a
      001617 90 03 B1         [24] 1109 	mov	dptr,#(_echo_find_received_10000_82 + 0x00f9)
      00161A F0               [24] 1110 	movx	@dptr,a
      00161B 90 03 B2         [24] 1111 	mov	dptr,#(_echo_find_received_10000_82 + 0x00fa)
      00161E F0               [24] 1112 	movx	@dptr,a
      00161F 90 03 B3         [24] 1113 	mov	dptr,#(_echo_find_received_10000_82 + 0x00fb)
      001622 F0               [24] 1114 	movx	@dptr,a
      001623 90 03 B4         [24] 1115 	mov	dptr,#(_echo_find_received_10000_82 + 0x00fc)
      001626 F0               [24] 1116 	movx	@dptr,a
      001627 90 03 B5         [24] 1117 	mov	dptr,#(_echo_find_received_10000_82 + 0x00fd)
      00162A F0               [24] 1118 	movx	@dptr,a
      00162B 90 03 B6         [24] 1119 	mov	dptr,#(_echo_find_received_10000_82 + 0x00fe)
      00162E F0               [24] 1120 	movx	@dptr,a
                                   1121 ;	../Firmware/src/WiFi_Module.c:12: uart0_read_string_until(received,200,(UINT8)TIMEOUT, '\0');
      00162F 85 3A 17         [24] 1122 	mov	_uart0_read_string_until_PARM_3,_echo_find_PARM_2
      001632 75 15 C8         [24] 1123 	mov	_uart0_read_string_until_PARM_2,#0xc8
      001635 F5 16            [12] 1124 	mov	(_uart0_read_string_until_PARM_2 + 1),a
      001637 F5 18            [12] 1125 	mov	_uart0_read_string_until_PARM_4,a
      001639 90 02 B8         [24] 1126 	mov	dptr,#_echo_find_received_10000_82
      00163C F5 F0            [12] 1127 	mov	b,a
      00163E 12 0E 28         [24] 1128 	lcall	_uart0_read_string_until
      001641 D0 05            [24] 1129 	pop	ar5
      001643 D0 06            [24] 1130 	pop	ar6
      001645 D0 07            [24] 1131 	pop	ar7
                                   1132 ;	../Firmware/src/WiFi_Module.c:13: return search_str(received,keyword);
      001647 8D 1A            [24] 1133 	mov	_search_str_PARM_2,r5
      001649 8E 1B            [24] 1134 	mov	(_search_str_PARM_2 + 1),r6
      00164B 8F 1C            [24] 1135 	mov	(_search_str_PARM_2 + 2),r7
      00164D 90 02 B8         [24] 1136 	mov	dptr,#_echo_find_received_10000_82
      001650 75 F0 00         [24] 1137 	mov	b, #0x00
                                   1138 ;	../Firmware/src/WiFi_Module.c:14: } 
      001653 02 0E 9B         [24] 1139 	ljmp	_search_str
                                   1140 ;------------------------------------------------------------
                                   1141 ;Allocation info for local variables in function 'wifi_send_command'
                                   1142 ;------------------------------------------------------------
                                   1143 ;ack                       Allocated with name '_wifi_send_command_PARM_2'
                                   1144 ;TIMEOUT                   Allocated with name '_wifi_send_command_PARM_3'
                                   1145 ;cmd                       Allocated to registers r5 r6 r7 
                                   1146 ;------------------------------------------------------------
                                   1147 ;	../Firmware/src/WiFi_Module.c:17: int wifi_send_command(char * cmd, char * ack, int TIMEOUT){
                                   1148 ;	-----------------------------------------
                                   1149 ;	 function wifi_send_command
                                   1150 ;	-----------------------------------------
      001656                       1151 _wifi_send_command:
                                   1152 ;	../Firmware/src/WiFi_Module.c:19: uart0_println(cmd);
      001656 12 09 24         [24] 1153 	lcall	_uart0_println
                                   1154 ;	../Firmware/src/WiFi_Module.c:20: return echo_find(ack, TIMEOUT);
      001659 85 3F 3A         [24] 1155 	mov	_echo_find_PARM_2,_wifi_send_command_PARM_3
      00165C 85 40 3B         [24] 1156 	mov	(_echo_find_PARM_2 + 1),(_wifi_send_command_PARM_3 + 1)
      00165F 85 3C 82         [24] 1157 	mov	dpl, _wifi_send_command_PARM_2
      001662 85 3D 83         [24] 1158 	mov	dph, (_wifi_send_command_PARM_2 + 1)
      001665 85 3E F0         [24] 1159 	mov	b, (_wifi_send_command_PARM_2 + 2)
                                   1160 ;	../Firmware/src/WiFi_Module.c:21: }
      001668 02 12 23         [24] 1161 	ljmp	_echo_find
                                   1162 	.area CSEG    (CODE)
                                   1163 	.area CONST   (CODE)
                                   1164 	.area XINIT   (CODE)
                                   1165 	.area CABS    (ABS,CODE)
